
test1.elf:     file format elf32-littleriscv
test1.elf
architecture: riscv:rv32, flags 0x00000112:
EXEC_P, HAS_SYMS, D_PAGED
start address 0x00000000

Program Header:
    LOAD off    0x00001000 vaddr 0x00000000 paddr 0x00000000 align 2**12
         filesz 0x0000646c memsz 0x0000646c flags r-x
    LOAD off    0x00008000 vaddr 0x20000000 paddr 0x0000646c align 2**12
         filesz 0x000002d8 memsz 0x00001b8c flags rw-
    LOAD off    0x00008800 vaddr 0x20007800 paddr 0x20007800 align 2**12
         filesz 0x00000000 memsz 0x00000800 flags rw-

Sections:
Idx Name          Size      VMA       LMA       File off  Algn
  0 .init         00000004  00000000  00000000  00001000  2**1
                  CONTENTS, ALLOC, LOAD, READONLY, CODE
  1 .vector       000001bc  00000004  00000004  00001004  2**1
                  CONTENTS, ALLOC, LOAD, READONLY, CODE
  2 .text         000062ac  000001c0  000001c0  000011c0  2**2
                  CONTENTS, ALLOC, LOAD, READONLY, CODE
  3 .fini         00000000  0000646c  0000646c  000082d8  2**0
                  CONTENTS, ALLOC, LOAD, CODE
  4 .dalign       00000000  20000000  20000000  000082d8  2**0
                  CONTENTS
  5 .dlalign      00000000  0000646c  0000646c  000082d8  2**0
                  CONTENTS
  6 .data         000002d8  20000000  0000646c  00008000  2**3
                  CONTENTS, ALLOC, LOAD, DATA
  7 .bss          000018b4  200002d8  00006744  000082d8  2**3
                  ALLOC
  8 .stack        00000800  20007800  20007800  00008800  2**0
                  ALLOC
  9 .debug_info   0001b32a  00000000  00000000  000082d8  2**0
                  CONTENTS, READONLY, DEBUGGING
 10 .debug_abbrev 000046c7  00000000  00000000  00023602  2**0
                  CONTENTS, READONLY, DEBUGGING
 11 .debug_aranges 00000d28  00000000  00000000  00027cd0  2**3
                  CONTENTS, READONLY, DEBUGGING
 12 .debug_ranges 00000e88  00000000  00000000  000289f8  2**3
                  CONTENTS, READONLY, DEBUGGING
 13 .debug_line   00011ab7  00000000  00000000  00029880  2**0
                  CONTENTS, READONLY, DEBUGGING
 14 .debug_str    00003d82  00000000  00000000  0003b337  2**0
                  CONTENTS, READONLY, DEBUGGING
 15 .comment      00000033  00000000  00000000  0003f0b9  2**0
                  CONTENTS, READONLY
 16 .debug_frame  00003120  00000000  00000000  0003f0ec  2**2
                  CONTENTS, READONLY, DEBUGGING
 17 .debug_loc    00005f4b  00000000  00000000  0004220c  2**0
                  CONTENTS, READONLY, DEBUGGING
 18 .stab         00000084  00000000  00000000  00048158  2**2
                  CONTENTS, READONLY, DEBUGGING
 19 .stabstr      00000117  00000000  00000000  000481dc  2**0
                  CONTENTS, READONLY, DEBUGGING
SYMBOL TABLE:
00000000 l    d  .init	00000000 .init
00000004 l    d  .vector	00000000 .vector
000001c0 l    d  .text	00000000 .text
0000646c l    d  .fini	00000000 .fini
20000000 l    d  .dalign	00000000 .dalign
0000646c l    d  .dlalign	00000000 .dlalign
20000000 l    d  .data	00000000 .data
200002d8 l    d  .bss	00000000 .bss
20007800 l    d  .stack	00000000 .stack
00000000 l    d  .debug_info	00000000 .debug_info
00000000 l    d  .debug_abbrev	00000000 .debug_abbrev
00000000 l    d  .debug_aranges	00000000 .debug_aranges
00000000 l    d  .debug_ranges	00000000 .debug_ranges
00000000 l    d  .debug_line	00000000 .debug_line
00000000 l    d  .debug_str	00000000 .debug_str
00000000 l    d  .comment	00000000 .comment
00000000 l    d  .debug_frame	00000000 .debug_frame
00000000 l    d  .debug_loc	00000000 .debug_loc
00000000 l    d  .stab	00000000 .stab
00000000 l    d  .stabstr	00000000 .stabstr
00000000 l    df *ABS*	00000000 ./Startup/startup_ch32v30x_D8C.o
00000004 l       .vector	00000000 _vector_base
00000000 l    df *ABS*	00000000 ch32v30x_it.c
00000000 l    df *ABS*	00000000 main.c
00000000 l    df *ABS*	00000000 system_ch32v30x.c
00000000 l    df *ABS*	00000000 ch32v30x_dbgmcu.c
00000000 l    df *ABS*	00000000 ch32v30x_dma.c
00000000 l    df *ABS*	00000000 ch32v30x_gpio.c
00000000 l    df *ABS*	00000000 ch32v30x_misc.c
00000000 l    df *ABS*	00000000 ch32v30x_pwr.c
00000000 l    df *ABS*	00000000 ch32v30x_rcc.c
20000010 l     O .data	00000010 APBAHBPrescTable
200002ac l     O .data	00000004 ADCPrescTable
00000000 l    df *ABS*	00000000 ch32v30x_rtc.c
00000000 l    df *ABS*	00000000 ch32v30x_spi.c
00000000 l    df *ABS*	00000000 ch32v30x_tim.c
00000000 l    df *ABS*	00000000 ch32v30x_usart.c
00000000 l    df *ABS*	00000000 debug.c
200002dc l     O .bss	00000002 p_ms
200002de l     O .bss	00000001 p_us
200002b0 l     O .data	00000004 curbrk.5273
00000000 l    df *ABS*	00000000 MFRC522.c
00000000 l    df *ABS*	00000000 RTC.c
00000000 l    df *ABS*	00000000 SD.c
00000000 l    df *ABS*	00000000 as608.c
00000000 l    df *ABS*	00000000 parse.c
00000000 l    df *ABS*	00000000 ringbuffer.c
00000000 l    df *ABS*	00000000 schedule.c
00000000 l    df *ABS*	00000000 tim.c
00000000 l    df *ABS*	00000000 usart.c
00000000 l    df *ABS*	00000000 gmtime.c
00000000 l    df *ABS*	00000000 gmtime_r.c
00000000 l    df *ABS*	00000000 malloc.c
00000000 l    df *ABS*	00000000 memcpy.c
00000000 l    df *ABS*	00000000 mktime.c
00002abc l     F .text	000001c6 validate_structure
00006088 l     O .text	00000030 DAYS_IN_MONTH
000060b8 l     O .text	00000030 _DAYS_BEFORE_MONTH
00000000 l    df *ABS*	00000000 nano-mallocr.c
00000000 l    df *ABS*	00000000 nano-mallocr.c
00000000 l    df *ABS*	00000000 printf.c
00000000 l    df *ABS*	00000000 puts.c
00000000 l    df *ABS*	00000000 sbrkr.c
00000000 l    df *ABS*	00000000 strlen.c
00000000 l    df *ABS*	00000000 tzcalc_limits.c
00000000 l    df *ABS*	00000000 tzlock.c
00000000 l    df *ABS*	00000000 tzset.c
00000000 l    df *ABS*	00000000 tzset_r.c
20001b70 l     O .bss	0000000b __tzname_dst
20001b7c l     O .bss	0000000b __tzname_std
2000030c l     O .bss	00000004 prev_tzenv
00000000 l    df *ABS*	00000000 vsnprintf.c
00000000 l    df *ABS*	00000000 wbuf.c
00000000 l    df *ABS*	00000000 wsetup.c
00000000 l    df *ABS*	00000000 div.c
00000000 l    df *ABS*	00000000 fflush.c
00000000 l    df *ABS*	00000000 findfp.c
00003b7c l     F .text	00000066 std
00000000 l    df *ABS*	00000000 fwalk.c
00000000 l    df *ABS*	00000000 getenv_r.c
00000000 l    df *ABS*	00000000 gettzinfo.c
200000e0 l     O .data	00000058 tzinfo
00000000 l    df *ABS*	00000000 makebuf.c
00000000 l    df *ABS*	00000000 mlock.c
00000000 l    df *ABS*	00000000 nano-vfprintf.c
00000000 l    df *ABS*	00000000 nano-vfprintf.c
00004298 l     F .text	00000028 __sfputc_r
00000000 l    df *ABS*	00000000 nano-vfprintf_i.c
00000000 l    df *ABS*	00000000 sscanf.c
00000000 l    df *ABS*	00000000 stdio.c
00000000 l    df *ABS*	00000000 strcpy.c
00000000 l    df *ABS*	00000000 strncmp.c
00000000 l    df *ABS*	00000000 strtoul.c
00004a78 l     F .text	0000012e _strtoul_l.isra.0
00000000 l    df *ABS*	00000000 writer.c
00000000 l    df *ABS*	00000000 closer.c
00000000 l    df *ABS*	00000000 envlock.c
00000000 l    df *ABS*	00000000 fstatr.c
00000000 l    df *ABS*	00000000 isattyr.c
00000000 l    df *ABS*	00000000 locale.c
00000000 l    df *ABS*	00000000 lseekr.c
00000000 l    df *ABS*	00000000 mbtowc_r.c
00000000 l    df *ABS*	00000000 memchr.c
00000000 l    df *ABS*	00000000 memmove.c
00000000 l    df *ABS*	00000000 nano-mallocr.c
00000000 l    df *ABS*	00000000 nano-vfscanf.c
00000000 l    df *ABS*	00000000 nano-vfscanf_i.c
00000000 l    df *ABS*	00000000 readr.c
00000000 l    df *ABS*	00000000 sccl.c
00000000 l    df *ABS*	00000000 strtol.c
00005658 l     F .text	0000013a _strtol_l.isra.0
00000000 l    df *ABS*	00000000 ungetc.c
00000000 l    df *ABS*	00000000 wctomb_r.c
00000000 l    df *ABS*	00000000 nano-mallocr.c
00000000 l    df *ABS*	00000000 libgcc2.c
00000000 l    df *ABS*	00000000 libgcc2.c
00000000 l    df *ABS*	00000000 close.c
00000000 l    df *ABS*	00000000 fstat.c
00000000 l    df *ABS*	00000000 isatty.c
00000000 l    df *ABS*	00000000 lseek.c
00000000 l    df *ABS*	00000000 read.c
00000000 l    df *ABS*	00000000 month_lengths.c
00000000 l    df *ABS*	00000000 ctype_.c
00000000 l    df *ABS*	00000000 libgcc2.c
00000000 l    df *ABS*	00000000 impure.c
2000007c l     O .data	00000060 impure_data
00000000 l    df *ABS*	00000000 tzvars.c
00000000 l    df *ABS*	00000000 environ.c
20000318 l     O .bss	00000004 initial_env
00000000 l    df *ABS*	00000000 reent.c
0000584c g     F .text	00000014 _malloc_usable_size_r
00000662  w      .text	00000000 EXTI2_IRQHandler
00005266 g     F .text	000000e2 _scanf_chars
00000662  w      .text	00000000 TIM8_TRG_COM_IRQHandler
00000662  w      .text	00000000 TIM8_CC_IRQHandler
0000216a g     F .text	00000054 uart3_printf
00004c7a g     F .text	00000032 _isatty_r
00004a40 g     F .text	00000010 strcpy
0000319a g     F .text	000000d8 _puts_r
00004cca g     F .text	00000036 _lseek_r
000008a0 g     F .text	00000014 DMA_Cmd
20000300 g     O .bss	00000001 uart2_flag
00000662  w      .text	00000000 UART8_IRQHandler
00005860 g     F .text	000003d4 .hidden __divdi3
00003158 g     F .text	00000042 printf
20000aa8 g       .data	00000000 __global_pointer$
000001c8 g     F .text	00000028 .hidden __riscv_save_8
0000091a g     F .text	00000008 DMA_GetITStatus
00000662  w      .text	00000000 TIM1_CC_IRQHandler
00004a0a g     F .text	00000030 __sseek
00003c34 g     F .text	0000006c __sinit
00000e0e g     F .text	00000004 SPI_I2S_SendData
0000249e g     F .text	00000074 uart4_printf
00003802 g     F .text	000000bc __swbuf_r
20000310 g     O .bss	00000004 _daylight
000003e4 g     F .text	00000010 HardFault_Handler
200002df g     O .bss	00000001 MFRC522_flag
00000cac g     F .text	00000012 RTC_EnterConfigMode
00003bec g     F .text	00000048 __sfmoreglue
000017a4 g     F .text	00000058 MFRC522_Proc
00003f48 g     F .text	00000002 __malloc_unlock
00001640 g     F .text	0000004e MFRC522_Request
00000214 g     F .text	0000000c .hidden __riscv_restore_3
00000662  w      .text	00000000 TIM6_IRQHandler
00000662  w      .text	00000000 SysTick_Handler
000009f8 g     F .text	0000005c NVIC_Init
00000662  w      .text	00000000 PVD_IRQHandler
00000662  w      .text	00000000 SDIO_IRQHandler
00004d4a g     F .text	00000046 memmove
00000662  w      .text	00000000 TIM9_BRK_IRQHandler
00000200 g     F .text	00000020 .hidden __riscv_restore_10
200002f8 g     O .bss	00000004 TIM2_Tick
00002736 g     F .text	000000fa uart_proc
00000e12 g     F .text	00000004 SPI_I2S_ReceiveData
00004cb2 g     F .text	00000018 __locale_ctype_ptr
00000662  w      .text	00000000 DMA2_Channel8_IRQHandler
000003e2 g     F .text	00000002 NMI_Handler
00001458 g     F .text	00000022 ClearBitMask
00000662  w      .text	00000000 CAN2_RX1_IRQHandler
00000662  w      .text	00000000 EXTI3_IRQHandler
000001c8 g     F .text	00000028 .hidden __riscv_save_11
000006f2 g     F .text	0000000a DBGMCU_GetCHIPID
200002e8 g     O .bss	00000002 as608_flag
000016fe g     F .text	00000040 MFRC522_find_card
200002e0 g     O .bss	00000008 time_count
00000662  w      .text	00000000 USBHS_IRQHandler
00000cd6 g     F .text	0000005a RTC_GetCounter
0000101a g     F .text	0000000a USART_GetFlagStatus
00000662  w      .text	00000000 DMA2_Channel9_IRQHandler
00004c46 g     F .text	00000034 _fstat_r
00000662  w      .text	00000000 TIM10_CC_IRQHandler
20001b88 g     O .bss	00000004 errno
000023ba g     F .text	00000048 USART4_DMA_SendBuff
00005348 g     F .text	00000258 _scanf_i
000049be g     F .text	00000004 __seofread
00001a76 g     F .text	00000026 set_password4
200002d8 g       .bss	00000000 _sbss
00000800 g       *ABS*	00000000 __stack_size
000010d4 g     F .text	00000054 USART_Printf_Init
00000868 g     F .text	00000038 DMA_Init
200009b0 g     O .bss	0000002c DMA_InitStructure_USART3_RX
20000034 g     O .data	0000000c uart3_parser
0000118c g     F .text	00000094 MFRC522_Init
00000662  w      .text	00000000 USBFS_IRQHandler
000008b4 g     F .text	00000008 DMA_GetCurrDataCounter
00000214 g     F .text	0000000c .hidden __riscv_restore_2
200002cc g     O .data	00000008 uart4_cmd
00002a0a g     F .text	000000b2 memcpy
00003be2 g     F .text	0000000a _cleanup_r
0000402e g     F .text	0000026a _svfprintf_r
00000662  w      .text	00000000 EXTI0_IRQHandler
00000662  w      .text	00000000 I2C2_EV_IRQHandler
00000662  w      .text	00000000 TIM10_TRG_COM_IRQHandler
00000eca g     F .text	00000018 TIM_Cmd
00003272 g     F .text	0000000c puts
200002a8 g     O .data	00000004 SystemCoreClock
000029f6 g     F .text	0000000a malloc
00000f0e g     F .text	0000000c TIM_ClearFlag
00006004 g     F .text	00000010 _fstat
00002102 g     F .text	00000016 USART3_Init
00000004 g       .init	00000000 _einit
00000f1a g     F .text	0000000c TIM_ClearITPendingBit
000037f0 g     F .text	00000012 vsnprintf
00000c42 g     F .text	0000001e RCC_APB2PeriphClockCmd
000001c0 g     F .text	00000030 .hidden __riscv_save_12
00001b5a g     F .text	0000003e ringbuffer_write
0000173e g     F .text	00000066 MFRC522_add_card
00000662  w      .text	00000000 CAN2_SCE_IRQHandler
00000662  w      .text	00000000 ADC1_2_IRQHandler
00004e80 g     F .text	00000044 __ssrefill_r
0000092a g     F .text	000000c0 GPIO_Init
00000662  w      .text	00000000 Break_Point_Handler
00004bbc g     F .text	0000001e strtoul
00000200 g     F .text	00000020 .hidden __riscv_restore_11
00001ea6 g     F .text	00000054 uart2_printf
200002d8 g     O .bss	00000004 NVIC_Priority_Group
00000662  w      .text	00000000 SPI1_IRQHandler
200002ec g     O .bss	00000004 Task_num
00000fb4 g     F .text	00000016 USART_Cmd
0000327e g     F .text	00000032 _sbrk_r
20000e08 g     O .bss	00000100 uart3_tx_buffer
00000662  w      .text	00000000 TAMPER_IRQHandler
000001f0 g     F .text	0000000c .hidden __riscv_save_1
00000214 g     F .text	0000000c .hidden __riscv_restore_0
00001868 g     F .text	00000086 RTC_SetTime
200002fe g     O .bss	00000001 USART3_Revnum
000055a0 g     F .text	00000036 _read_r
2000004c g     O .data	00000030 system_array
000001d6 g     F .text	0000001a .hidden __riscv_save_7
2000092c g     O .bss	0000002c DMA_InitStructure_UART6_TX
00001060 g     F .text	00000014 USART_ClearITPendingBit
00000662  w      .text	00000000 CAN2_RX0_IRQHandler
00000a8a g     F .text	00000020 RCC_RTCCLKCmd
00000922 g     F .text	00000008 DMA_ClearITPendingBit
000013a4 g     F .text	00000096 MFRC522_Reset
00004ec4 g     F .text	000003a2 __ssvfscanf_r
00000662  w      .text	00000000 TIM8_UP_IRQHandler
00000c60 g     F .text	0000001e RCC_APB1PeriphClockCmd
00000662  w      .text	00000000 Ecall_M_Mode_Handler
20007800 g       .stack	00000000 _heap_end
00002118 g     F .text	00000052 USART3_DMA_SendBuff
00006014 g     F .text	00000010 _isatty
0000109e g     F .text	00000036 Delay_Us
200002d4 g     O .data	00000004 _global_impure_ptr
0000020a g     F .text	00000016 .hidden __riscv_restore_5
00004d90 g     F .text	0000005a _realloc_r
00000f04 g     F .text	0000000a TIM_GetFlagStatus
20000f1c g     O .bss	00000200 uart4_rx_buffer
00000e16 g     F .text	0000000a SPI_I2S_GetFlagStatus
00000662  w      .text	00000000 DMA2_Channel2_IRQHandler
00000c24 g     F .text	0000001e RCC_AHBPeriphClockCmd
20000958 g     O .bss	0000002c DMA_InitStructure_USART2_RX
00000662  w      .text	00000000 DMA1_Channel4_IRQHandler
00001162 g     F .text	0000002a _sbrk
0000285a g     F .text	0000019c gmtime_r
20000020 g     O .data	00000014 spi3_dma
000012e6 g     F .text	000000be Write_MFRC522
00000d58 g     F .text	0000002a RTC_SetPrescaler
20000a34 g     O .bss	0000002c DMA_InitStructure_USART4_TX
200002ff g     O .bss	00000001 USART4_Revnum
00000662  w      .text	00000000 TIM9_UP_IRQHandler
000008bc g     F .text	00000032 DMA_GetFlagStatus
0000020a g     F .text	00000016 .hidden __riscv_restore_6
000021be g     F .text	00000082 USART3_IRQHandler
000017fc g     F .text	0000006c RTC_Init
00000a54 g     F .text	00000016 PWR_BackupAccessCmd
00000662  w      .text	00000000 RTC_IRQHandler
20001b8c g       .bss	00000000 _ebss
00001024 g     F .text	0000003c USART_GetITStatus
00000662  w      .text	00000000 DMA1_Channel7_IRQHandler
000037f0 g     F .text	00000012 vsniprintf
00003420 g     F .text	00000002 __tz_unlock
00000662  w      .text	00000000 CAN1_RX1_IRQHandler
00001074 g     F .text	0000002a Delay_Init
00000d92 g     F .text	00000024 RTC_WaitForSynchro
00000662  w      .text	00000000 DVP_IRQHandler
00000662  w      .text	00000000 UART5_IRQHandler
00000c7e g     F .text	0000002e RCC_GetFlagStatus
200002b8 g     O .data	00000008 _tzname
200002c0 g     O .data	00000004 environ
000009ea g     F .text	00000004 GPIO_SetBits
00000662  w      .text	00000000 TIM4_IRQHandler
200002fd g     O .bss	00000001 USART2_Revnum
20001730 g     O .bss	00000400 uart6_rx_buffer
000001c8 g     F .text	00000028 .hidden __riscv_save_9
20000f08 g     O .bss	00000014 uart4_ringbuffer
00000d30 g     F .text	00000028 RTC_SetCounter
00000662  w      .text	00000000 DMA2_Channel1_IRQHandler
0000613c g     O .text	00000020 __sf_fake_stderr
00001e54 g     F .text	00000052 USART2_DMA_SendBuff
000001d6 g     F .text	0000001a .hidden __riscv_save_4
00002486 g     F .text	00000018 USART4_Init
000018ee g     F .text	00000034 RTC_GetTime
00000662  w      .text	00000000 I2C1_EV_IRQHandler
00003f4a g     F .text	000000e4 __ssputs_r
00002240 g     F .text	0000017a USART4_DMAConfig
20000301 g     O .bss	00000001 uart3_flag
00001f84 g     F .text	0000017e USART3_DMAConfig
00000aaa g     F .text	0000017a RCC_GetClocksFreq
000015a6 g     F .text	0000000e MFRC522_AntennaOff
00000662  w      .text	00000000 DMA1_Channel6_IRQHandler
000042c0 g     F .text	00000042 __sfputs_r
00002402 g     F .text	00000084 UART4_IRQHandler
00000662  w      .text	00000000 DMA2_Channel4_IRQHandler
00004d32 g     F .text	00000018 memchr
00000f26 g     F .text	0000008e USART_Init
00002fdc g     F .text	000000a8 _free_r
00000662  w      .text	00000000 TIM3_IRQHandler
00000662  w      .text	00000000 RCC_IRQHandler
200002fc g     O .bss	00000001 UART6_Revnum
000001f0 g     F .text	0000000c .hidden __riscv_save_3
00000662  w      .text	00000000 TIM1_TRG_COM_IRQHandler
200002f0 g     O .bss	00000008 system_time
0000197c g     F .text	0000002a DMA1_Channel1_IRQHandler
00004dea g     F .text	00000096 _sungetc_r
00002c82 g     F .text	0000035a mktime
00000000 g       .init	00000000 _start
00000662  w      .text	00000000 DMA2_Channel7_IRQHandler
20000000 g     O .data	00000010 AHBPrescTable
20000a60 g     O .bss	00000014 uart2_ringbuffer
00006024 g     F .text	00000010 _lseek
00000a7e g     F .text	0000000c RCC_RTCCLKConfig
0000271a g     F .text	0000001c UART6_Init
00000662  w      .text	00000000 EXTI15_10_IRQHandler
00000ee2 g     F .text	00000012 TIM_ITConfig
2000111c g     O .bss	00000200 uart4_tx_buffer
00004a50 g     F .text	00000028 strncmp
2000171c g     O .bss	00000014 uart6_ringbuffer
200008dc g     O .bss	00000024 rtc_time
00000fca g     F .text	00000036 USART_ITConfig
0000619c g     O .text	00000060 __month_lengths
00004ba6 g     F .text	00000016 _strtoul_r
000009ee g     F .text	00000004 GPIO_ResetBits
00000662  w      .text	00000000 TIM7_IRQHandler
00004c10 g     F .text	00000032 _close_r
000015b4 g     F .text	00000060 CalulateCRC
00000662  w      .text	00000000 CAN2_TX_IRQHandler
20000000 g       .dalign	00000000 _data_vma
00000662  w      .text	00000000 TIM5_IRQHandler
0000493e g     F .text	00000052 sscanf
000038be g     F .text	000000fe __swsetup_r
00000662  w      .text	00000000 EXTI9_5_IRQHandler
00003ca0 g     F .text	000000a0 __sfp
20000302 g     O .bss	00000001 uart4_flag
00003794 g     F .text	0000005c _vsnprintf_r
000001c8 g     F .text	00000028 .hidden __riscv_save_10
00004990 g     F .text	0000002e __sread
20000a08 g     O .bss	0000002c DMA_InitStructure_USART4_RX
00000662  w      .text	00000000 ETH_WKUP_IRQHandler
00003f46 g     F .text	00000002 __malloc_lock
0000020a g     F .text	00000016 .hidden __riscv_restore_4
00000200 g     F .text	00000020 .hidden __riscv_restore_8
00003b16 g     F .text	00000066 _fflush_r
000001d6 g     F .text	0000001a .hidden __riscv_save_6
00000662  w      .text	00000000 SPI2_IRQHandler
0000615c g     O .text	00000020 __sf_fake_stdin
0000341e g     F .text	00000002 __tz_lock
20000cf4 g     O .bss	00000014 uart3_ringbuffer
00000220 g     F .text	000000a8 memset
00000200 g     F .text	00000020 .hidden __riscv_restore_9
00001b2c g     F .text	0000002e ringbuffer_init
20001b30 g     O .bss	00000040 uart6_tx_buffer
0000020a g     F .text	00000016 .hidden __riscv_restore_7
000003f4 g     F .text	0000008e main
00000662  w      .text	00000000 TIM10_BRK_IRQHandler
00001c26 g     F .text	00000006 TIM2_GetTick
00000662  w      .text	00000000 TIM9_CC_IRQHandler
00004a3a g     F .text	00000006 __sclose
00000662  w      .text	00000000 DMA2_Channel5_IRQHandler
00005792 g     F .text	00000016 _strtol_r
00003daa g     F .text	00000096 _findenv_r
00001b98 g     F .text	0000003e ringbuffer_read
00003084 g     F .text	000000d4 _malloc_r
00000ef4 g     F .text	00000010 TIM_InternalClockConfig
0000582e g     F .text	0000001e __ascii_wctomb
000057a8 g     F .text	00000086 __submore
00004c44 g     F .text	00000002 __env_unlock
2000131c g     O .bss	00000400 uart6_rb
00000662  w      .text	00000000 DMA1_Channel5_IRQHandler
200009dc g     O .bss	0000002c DMA_InitStructure_USART3_TX
00000662  w      .text	00000000 EXTI4_IRQHandler
00000662  w      .text	00000000 USB_LP_CAN1_RX0_IRQHandler
00003422 g     F .text	00000008 _tzset_unlocked
00000df4 g     F .text	0000001a SPI_Cmd
000002c8 g     F .text	0000011a strcmp
0000493e g     F .text	00000052 siscanf
00001bd6 g     F .text	00000008 schedule_init
00000482 g     F .text	000000b2 SystemInit
00000662  w      .text	00000000 RNG_IRQHandler
00003158 g     F .text	00000042 iprintf
00000662  w      .text	00000000 USB_HP_CAN1_TX_IRQHandler
0000636c g     O .text	00000100 .hidden __clz_tab
00001614 g     F .text	0000002c MFRC522_Halt
00002512 g     F .text	0000017c UART6_DMAConfig
00000000 g       .init	00000000 _sinit
20000c74 g     O .bss	00000080 uart2_tx_buffer
00004bda g     F .text	00000036 _write_r
00000662  w      .text	00000000 DMA1_Channel3_IRQHandler
00000662  w      .text	00000000 ETH_IRQHandler
00004590 g     F .text	0000010c _printf_common
200002b4 g     O .data	00000004 _impure_ptr
00000662  w      .text	00000000 TIM1_UP_IRQHandler
000039e4 g     F .text	00000132 __sflush_r
2000031c g     O .bss	000005c0 card_arr
0000402e g     F .text	0000026a _svfiprintf_r
00000662  w      .text	00000000 WWDG_IRQHandler
20000d08 g     O .bss	00000100 uart3_rx_buffer
00000662  w      .text	00000000 USBHSWakeup_IRQHandler
00000662  w      .text	00000000 DMA2_Channel11_IRQHandler
00004d00 g     F .text	00000032 __ascii_mbtowc
00000662  w      .text	00000000 Ecall_U_Mode_Handler
20000a74 g     O .bss	00000200 uart2_rx_buffer
00000662  w      .text	00000000 DMA2_Channel6_IRQHandler
00001c96 g     F .text	00000032 TIM2_IRQHandler
20008000 g       .stack	00000000 _eusrstack
000001f0 g     F .text	0000000c .hidden __riscv_save_2
00003794 g     F .text	0000005c _vsniprintf_r
00000662  w      .text	00000000 SW_Handler
200002c4 g     O .data	00000008 uart3_cmd
20000314 g     O .bss	00000004 _timezone
00001220 g     F .text	000000c6 Read_MFRC522
00001bde g     F .text	00000048 schedule_proc
00004ec4 g     F .text	000003a2 __ssvfiscanf_r
20000303 g     O .bss	00000001 uart6_flag
00000662  w      .text	00000000 TIM1_BRK_IRQHandler
00003e5a g     F .text	00000058 __swhatbuf_r
00001012 g     F .text	00000008 USART_SendData
00000662  w      .text	00000000 DMA2_Channel10_IRQHandler
00000662  w      .text	00000000 EXTI1_IRQHandler
00000d82 g     F .text	00000010 RTC_WaitForLastTask
00001e3e g     F .text	00000016 USART2_Init
000001d6 g     F .text	0000001a .hidden __riscv_save_5
00001128 g     F .text	0000003a _write
200002d8 g       .data	00000000 _edata
20001b8c g       .bss	00000000 _end
20000984 g     O .bss	0000002c DMA_InitStructure_USART2_TX
0000342a g     F .text	0000036a _tzset_unlocked_r
00000e20 g     F .text	000000aa TIM_TimeBaseInit
0000143a g     F .text	0000001e SetBitMask
00000662  w      .text	00000000 RTCAlarm_IRQHandler
00001590 g     F .text	00000016 MFRC522_AntennaOn
0000646c g       .dlalign	00000000 _data_lma
00000662  w      .text	00000000 TIM10_UP_IRQHandler
00000662  w      .text	00000000 TIM9_TRG_COM_IRQHandler
00000662  w      .text	00000000 UART7_IRQHandler
0000168e g     F .text	00000070 MFRC522_Anticoll
00001efa g     F .text	0000008a USART2_IRQHandler
0000268e g     F .text	0000008c UART6_IRQHandler
000049c2 g     F .text	00000048 __swrite
00000cbe g     F .text	00000018 RTC_ExitConfigMode
00004302 g     F .text	0000028e _vfiprintf_r
00001a9c g     F .text	00000090 Parser_Process
00003d40 g     F .text	0000006a _fwalk_reent
00000534 g     F .text	0000012e SystemCoreClockUpdate
00000662  w      .text	00000000 I2C2_ER_IRQHandler
00001940 g     F .text	0000003c DMA1_Channel2_IRQHandler
00001a50 g     F .text	00000026 set_password3
0000617c g     O .text	00000020 __sf_fake_stdout
000055d6 g     F .text	00000082 __sccl
000001fc g     F .text	00000024 .hidden __riscv_restore_12
00000662  w      .text	00000000 TIM8_BRK_IRQHandler
00006268 g     O .text	00000101 _ctype_
000008ee g     F .text	0000002c DMA_ClearFlag
00006034 g     F .text	00000010 _read
00000664  w      .text	00000000 handle_reset
00005c34 g     F .text	000003c0 .hidden __moddi3
00000662  w      .text	00000000 CAN1_SCE_IRQHandler
000001f0 g     F .text	0000000c .hidden __riscv_save_0
00000662  w      .text	00000000 FLASH_IRQHandler
000019a6 g     F .text	000000aa as608_proc
00002830 g     F .text	0000002a gmtime
00000662  w      .text	00000000 USART1_IRQHandler
00003eb2 g     F .text	00000094 __smakebuf_r
00000a6a g     F .text	00000014 RCC_LSICmd
000032b0 g     F .text	00000012 strlen
0000469c g     F .text	000002a2 _printf_i
00000662  w      .text	00000000 SPI3_IRQHandler
00004cac g     F .text	00000006 __locale_ctype_ptr_l
20000900 g     O .bss	0000002c DMA_InitStructure_UART6_RX
20000308 g     O .bss	00000004 __malloc_sbrk_start
00000662  w      .text	00000000 I2C1_ER_IRQHandler
000039bc g     F .text	00000028 div
00001922 g     F .text	0000001e RTC_proc
00000db6 g     F .text	0000003e SPI_Init
00001c2c g     F .text	0000006a TIM2_init
000009f2 g     F .text	00000006 NVIC_PriorityGroupConfig
000006fc g     F .text	0000016c DMA_DeInit
20000304 g     O .bss	00000004 __malloc_free_list
00000214 g     F .text	0000000c .hidden __riscv_restore_1
00004c42 g     F .text	00000002 __env_lock
20000040 g     O .data	0000000c uart4_parser
00004302 g     F .text	0000028e _vfprintf_r
0000147a g     F .text	00000116 MFRC522_ToCard
000032c2 g     F .text	0000015c __tzcalc_limits
00001000 g     F .text	00000012 USART_DMACmd
20000138 g     O .data	0000016c __global_locale
00000662  w      .text	00000000 USBWakeUp_IRQHandler
00005ff4 g     F .text	00000010 _close
00003e50 g     F .text	0000000a __gettzinfo
00002a00 g     F .text	0000000a free
00000662  w      .text	00000000 DMA2_Channel3_IRQHandler
00003e40 g     F .text	00000010 _getenv_r
00001cc8 g     F .text	00000176 USART2_DMAConfig



Disassembly of section .init:

00000000 <_sinit>:
   0:	6640006f          	j	664 <handle_reset>

Disassembly of section .vector:

00000004 <_vector_base>:
	...
   c:	03e2                	slli	t2,t2,0x18
   e:	0000                	unimp
  10:	03e4                	addi	s1,sp,460
  12:	0000                	unimp
  14:	0000                	unimp
  16:	0000                	unimp
  18:	0662                	slli	a2,a2,0x18
	...
  22:	0000                	unimp
  24:	0662                	slli	a2,a2,0x18
  26:	0000                	unimp
  28:	0662                	slli	a2,a2,0x18
	...
  32:	0000                	unimp
  34:	0662                	slli	a2,a2,0x18
  36:	0000                	unimp
  38:	0000                	unimp
  3a:	0000                	unimp
  3c:	0662                	slli	a2,a2,0x18
  3e:	0000                	unimp
  40:	0000                	unimp
  42:	0000                	unimp
  44:	0662                	slli	a2,a2,0x18
  46:	0000                	unimp
  48:	0662                	slli	a2,a2,0x18
  4a:	0000                	unimp
  4c:	0662                	slli	a2,a2,0x18
  4e:	0000                	unimp
  50:	0662                	slli	a2,a2,0x18
  52:	0000                	unimp
  54:	0662                	slli	a2,a2,0x18
  56:	0000                	unimp
  58:	0662                	slli	a2,a2,0x18
  5a:	0000                	unimp
  5c:	0662                	slli	a2,a2,0x18
  5e:	0000                	unimp
  60:	0662                	slli	a2,a2,0x18
  62:	0000                	unimp
  64:	0662                	slli	a2,a2,0x18
  66:	0000                	unimp
  68:	0662                	slli	a2,a2,0x18
  6a:	0000                	unimp
  6c:	0662                	slli	a2,a2,0x18
  6e:	0000                	unimp
  70:	197c                	addi	a5,sp,188
  72:	0000                	unimp
  74:	1940                	addi	s0,sp,180
  76:	0000                	unimp
  78:	0662                	slli	a2,a2,0x18
  7a:	0000                	unimp
  7c:	0662                	slli	a2,a2,0x18
  7e:	0000                	unimp
  80:	0662                	slli	a2,a2,0x18
  82:	0000                	unimp
  84:	0662                	slli	a2,a2,0x18
  86:	0000                	unimp
  88:	0662                	slli	a2,a2,0x18
  8a:	0000                	unimp
  8c:	0662                	slli	a2,a2,0x18
  8e:	0000                	unimp
  90:	0662                	slli	a2,a2,0x18
  92:	0000                	unimp
  94:	0662                	slli	a2,a2,0x18
  96:	0000                	unimp
  98:	0662                	slli	a2,a2,0x18
  9a:	0000                	unimp
  9c:	0662                	slli	a2,a2,0x18
  9e:	0000                	unimp
  a0:	0662                	slli	a2,a2,0x18
  a2:	0000                	unimp
  a4:	0662                	slli	a2,a2,0x18
  a6:	0000                	unimp
  a8:	0662                	slli	a2,a2,0x18
  aa:	0000                	unimp
  ac:	0662                	slli	a2,a2,0x18
  ae:	0000                	unimp
  b0:	0662                	slli	a2,a2,0x18
  b2:	0000                	unimp
  b4:	1c96                	slli	s9,s9,0x25
  b6:	0000                	unimp
  b8:	0662                	slli	a2,a2,0x18
  ba:	0000                	unimp
  bc:	0662                	slli	a2,a2,0x18
  be:	0000                	unimp
  c0:	0662                	slli	a2,a2,0x18
  c2:	0000                	unimp
  c4:	0662                	slli	a2,a2,0x18
  c6:	0000                	unimp
  c8:	0662                	slli	a2,a2,0x18
  ca:	0000                	unimp
  cc:	0662                	slli	a2,a2,0x18
  ce:	0000                	unimp
  d0:	0662                	slli	a2,a2,0x18
  d2:	0000                	unimp
  d4:	0662                	slli	a2,a2,0x18
  d6:	0000                	unimp
  d8:	0662                	slli	a2,a2,0x18
  da:	0000                	unimp
  dc:	1efa                	slli	t4,t4,0x3e
  de:	0000                	unimp
  e0:	21be                	lhu	a5,2(a1)
  e2:	0000                	unimp
  e4:	0662                	slli	a2,a2,0x18
  e6:	0000                	unimp
  e8:	0662                	slli	a2,a2,0x18
  ea:	0000                	unimp
  ec:	0662                	slli	a2,a2,0x18
  ee:	0000                	unimp
  f0:	0662                	slli	a2,a2,0x18
  f2:	0000                	unimp
  f4:	0662                	slli	a2,a2,0x18
  f6:	0000                	unimp
  f8:	0662                	slli	a2,a2,0x18
  fa:	0000                	unimp
  fc:	0662                	slli	a2,a2,0x18
  fe:	0000                	unimp
 100:	0662                	slli	a2,a2,0x18
 102:	0000                	unimp
 104:	0000                	unimp
 106:	0000                	unimp
 108:	0662                	slli	a2,a2,0x18
 10a:	0000                	unimp
 10c:	0662                	slli	a2,a2,0x18
 10e:	0000                	unimp
 110:	0662                	slli	a2,a2,0x18
 112:	0000                	unimp
 114:	2402                	lhu	s0,8(s0)
 116:	0000                	unimp
 118:	0662                	slli	a2,a2,0x18
 11a:	0000                	unimp
 11c:	0662                	slli	a2,a2,0x18
 11e:	0000                	unimp
 120:	0662                	slli	a2,a2,0x18
 122:	0000                	unimp
 124:	0662                	slli	a2,a2,0x18
 126:	0000                	unimp
 128:	0662                	slli	a2,a2,0x18
 12a:	0000                	unimp
 12c:	0662                	slli	a2,a2,0x18
 12e:	0000                	unimp
 130:	0662                	slli	a2,a2,0x18
 132:	0000                	unimp
 134:	0662                	slli	a2,a2,0x18
 136:	0000                	unimp
 138:	0662                	slli	a2,a2,0x18
 13a:	0000                	unimp
 13c:	0662                	slli	a2,a2,0x18
 13e:	0000                	unimp
 140:	0662                	slli	a2,a2,0x18
 142:	0000                	unimp
 144:	0662                	slli	a2,a2,0x18
 146:	0000                	unimp
 148:	0662                	slli	a2,a2,0x18
 14a:	0000                	unimp
 14c:	0662                	slli	a2,a2,0x18
 14e:	0000                	unimp
 150:	0662                	slli	a2,a2,0x18
 152:	0000                	unimp
 154:	0662                	slli	a2,a2,0x18
 156:	0000                	unimp
 158:	0662                	slli	a2,a2,0x18
 15a:	0000                	unimp
 15c:	0662                	slli	a2,a2,0x18
 15e:	0000                	unimp
 160:	268e                	lhu	a1,8(a3)
 162:	0000                	unimp
 164:	0662                	slli	a2,a2,0x18
 166:	0000                	unimp
 168:	0662                	slli	a2,a2,0x18
 16a:	0000                	unimp
 16c:	0662                	slli	a2,a2,0x18
 16e:	0000                	unimp
 170:	0662                	slli	a2,a2,0x18
 172:	0000                	unimp
 174:	0662                	slli	a2,a2,0x18
 176:	0000                	unimp
 178:	0662                	slli	a2,a2,0x18
 17a:	0000                	unimp
 17c:	0662                	slli	a2,a2,0x18
 17e:	0000                	unimp
 180:	0662                	slli	a2,a2,0x18
 182:	0000                	unimp
 184:	0662                	slli	a2,a2,0x18
 186:	0000                	unimp
 188:	0662                	slli	a2,a2,0x18
 18a:	0000                	unimp
 18c:	0662                	slli	a2,a2,0x18
 18e:	0000                	unimp
 190:	0662                	slli	a2,a2,0x18
 192:	0000                	unimp
 194:	0662                	slli	a2,a2,0x18
 196:	0000                	unimp
 198:	0662                	slli	a2,a2,0x18
 19a:	0000                	unimp
 19c:	0662                	slli	a2,a2,0x18
 19e:	0000                	unimp
 1a0:	0662                	slli	a2,a2,0x18
	...

Disassembly of section .text:

000001c0 <__riscv_save_12>:
     1c0:	7139                	addi	sp,sp,-64
     1c2:	4301                	li	t1,0
     1c4:	c66e                	sw	s11,12(sp)
     1c6:	a019                	j	1cc <__riscv_save_10+0x4>

000001c8 <__riscv_save_10>:
     1c8:	7139                	addi	sp,sp,-64
     1ca:	5341                	li	t1,-16
     1cc:	c86a                	sw	s10,16(sp)
     1ce:	ca66                	sw	s9,20(sp)
     1d0:	cc62                	sw	s8,24(sp)
     1d2:	ce5e                	sw	s7,28(sp)
     1d4:	a019                	j	1da <__riscv_save_4+0x4>

000001d6 <__riscv_save_4>:
     1d6:	7139                	addi	sp,sp,-64
     1d8:	5301                	li	t1,-32
     1da:	d05a                	sw	s6,32(sp)
     1dc:	d256                	sw	s5,36(sp)
     1de:	d452                	sw	s4,40(sp)
     1e0:	d64e                	sw	s3,44(sp)
     1e2:	d84a                	sw	s2,48(sp)
     1e4:	da26                	sw	s1,52(sp)
     1e6:	dc22                	sw	s0,56(sp)
     1e8:	de06                	sw	ra,60(sp)
     1ea:	40610133          	sub	sp,sp,t1
     1ee:	8282                	jr	t0

000001f0 <__riscv_save_0>:
     1f0:	1141                	addi	sp,sp,-16
     1f2:	c04a                	sw	s2,0(sp)
     1f4:	c226                	sw	s1,4(sp)
     1f6:	c422                	sw	s0,8(sp)
     1f8:	c606                	sw	ra,12(sp)
     1fa:	8282                	jr	t0

000001fc <__riscv_restore_12>:
     1fc:	4db2                	lw	s11,12(sp)
     1fe:	0141                	addi	sp,sp,16

00000200 <__riscv_restore_10>:
     200:	4d02                	lw	s10,0(sp)
     202:	4c92                	lw	s9,4(sp)
     204:	4c22                	lw	s8,8(sp)
     206:	4bb2                	lw	s7,12(sp)
     208:	0141                	addi	sp,sp,16

0000020a <__riscv_restore_4>:
     20a:	4b02                	lw	s6,0(sp)
     20c:	4a92                	lw	s5,4(sp)
     20e:	4a22                	lw	s4,8(sp)
     210:	49b2                	lw	s3,12(sp)
     212:	0141                	addi	sp,sp,16

00000214 <__riscv_restore_0>:
     214:	4902                	lw	s2,0(sp)
     216:	4492                	lw	s1,4(sp)
     218:	4422                	lw	s0,8(sp)
     21a:	40b2                	lw	ra,12(sp)
     21c:	0141                	addi	sp,sp,16
     21e:	8082                	ret

00000220 <memset>:
     220:	433d                	li	t1,15
     222:	872a                	mv	a4,a0
     224:	02c37363          	bgeu	t1,a2,24a <memset+0x2a>
     228:	00f77793          	andi	a5,a4,15
     22c:	efbd                	bnez	a5,2aa <memset+0x8a>
     22e:	e5ad                	bnez	a1,298 <memset+0x78>
     230:	ff067693          	andi	a3,a2,-16
     234:	8a3d                	andi	a2,a2,15
     236:	96ba                	add	a3,a3,a4
     238:	c30c                	sw	a1,0(a4)
     23a:	c34c                	sw	a1,4(a4)
     23c:	c70c                	sw	a1,8(a4)
     23e:	c74c                	sw	a1,12(a4)
     240:	0741                	addi	a4,a4,16
     242:	fed76be3          	bltu	a4,a3,238 <memset+0x18>
     246:	e211                	bnez	a2,24a <memset+0x2a>
     248:	8082                	ret
     24a:	40c306b3          	sub	a3,t1,a2
     24e:	068a                	slli	a3,a3,0x2
     250:	00000297          	auipc	t0,0x0
     254:	9696                	add	a3,a3,t0
     256:	00a68067          	jr	10(a3)
     25a:	00b70723          	sb	a1,14(a4)
     25e:	00b706a3          	sb	a1,13(a4)
     262:	00b70623          	sb	a1,12(a4)
     266:	00b705a3          	sb	a1,11(a4)
     26a:	00b70523          	sb	a1,10(a4)
     26e:	00b704a3          	sb	a1,9(a4)
     272:	00b70423          	sb	a1,8(a4)
     276:	00b703a3          	sb	a1,7(a4)
     27a:	00b70323          	sb	a1,6(a4)
     27e:	00b702a3          	sb	a1,5(a4)
     282:	00b70223          	sb	a1,4(a4)
     286:	00b701a3          	sb	a1,3(a4)
     28a:	00b70123          	sb	a1,2(a4)
     28e:	00b700a3          	sb	a1,1(a4)
     292:	00b70023          	sb	a1,0(a4)
     296:	8082                	ret
     298:	0ff5f593          	andi	a1,a1,255
     29c:	00859693          	slli	a3,a1,0x8
     2a0:	8dd5                	or	a1,a1,a3
     2a2:	01059693          	slli	a3,a1,0x10
     2a6:	8dd5                	or	a1,a1,a3
     2a8:	b761                	j	230 <memset+0x10>
     2aa:	00279693          	slli	a3,a5,0x2
     2ae:	00000297          	auipc	t0,0x0
     2b2:	9696                	add	a3,a3,t0
     2b4:	8286                	mv	t0,ra
     2b6:	fa8680e7          	jalr	-88(a3)
     2ba:	8096                	mv	ra,t0
     2bc:	17c1                	addi	a5,a5,-16
     2be:	8f1d                	sub	a4,a4,a5
     2c0:	963e                	add	a2,a2,a5
     2c2:	f8c374e3          	bgeu	t1,a2,24a <memset+0x2a>
     2c6:	b7a5                	j	22e <memset+0xe>

000002c8 <strcmp>:
     2c8:	00b56733          	or	a4,a0,a1
     2cc:	53fd                	li	t2,-1
     2ce:	8b0d                	andi	a4,a4,3
     2d0:	e779                	bnez	a4,39e <strcmp+0xd6>
     2d2:	7f7f87b7          	lui	a5,0x7f7f8
     2d6:	f7f78793          	addi	a5,a5,-129 # 7f7f7f7f <_eusrstack+0x5f7eff7f>
     2da:	4110                	lw	a2,0(a0)
     2dc:	4194                	lw	a3,0(a1)
     2de:	00f672b3          	and	t0,a2,a5
     2e2:	00f66333          	or	t1,a2,a5
     2e6:	92be                	add	t0,t0,a5
     2e8:	0062e2b3          	or	t0,t0,t1
     2ec:	0c729563          	bne	t0,t2,3b6 <strcmp+0xee>
     2f0:	06d61863          	bne	a2,a3,360 <strcmp+0x98>
     2f4:	4150                	lw	a2,4(a0)
     2f6:	41d4                	lw	a3,4(a1)
     2f8:	00f672b3          	and	t0,a2,a5
     2fc:	00f66333          	or	t1,a2,a5
     300:	92be                	add	t0,t0,a5
     302:	0062e2b3          	or	t0,t0,t1
     306:	0a729663          	bne	t0,t2,3b2 <strcmp+0xea>
     30a:	04d61b63          	bne	a2,a3,360 <strcmp+0x98>
     30e:	4510                	lw	a2,8(a0)
     310:	4594                	lw	a3,8(a1)
     312:	00f672b3          	and	t0,a2,a5
     316:	00f66333          	or	t1,a2,a5
     31a:	92be                	add	t0,t0,a5
     31c:	0062e2b3          	or	t0,t0,t1
     320:	08729f63          	bne	t0,t2,3be <strcmp+0xf6>
     324:	02d61e63          	bne	a2,a3,360 <strcmp+0x98>
     328:	4550                	lw	a2,12(a0)
     32a:	45d4                	lw	a3,12(a1)
     32c:	00f672b3          	and	t0,a2,a5
     330:	00f66333          	or	t1,a2,a5
     334:	92be                	add	t0,t0,a5
     336:	0062e2b3          	or	t0,t0,t1
     33a:	08729863          	bne	t0,t2,3ca <strcmp+0x102>
     33e:	02d61163          	bne	a2,a3,360 <strcmp+0x98>
     342:	4910                	lw	a2,16(a0)
     344:	4994                	lw	a3,16(a1)
     346:	00f672b3          	and	t0,a2,a5
     34a:	00f66333          	or	t1,a2,a5
     34e:	92be                	add	t0,t0,a5
     350:	0062e2b3          	or	t0,t0,t1
     354:	08729163          	bne	t0,t2,3d6 <strcmp+0x10e>
     358:	0551                	addi	a0,a0,20
     35a:	05d1                	addi	a1,a1,20
     35c:	f6d60fe3          	beq	a2,a3,2da <strcmp+0x12>
     360:	01061713          	slli	a4,a2,0x10
     364:	01069793          	slli	a5,a3,0x10
     368:	00f71c63          	bne	a4,a5,380 <strcmp+0xb8>
     36c:	01065713          	srli	a4,a2,0x10
     370:	0106d793          	srli	a5,a3,0x10
     374:	40f70533          	sub	a0,a4,a5
     378:	0ff57593          	andi	a1,a0,255
     37c:	e991                	bnez	a1,390 <strcmp+0xc8>
     37e:	8082                	ret
     380:	8341                	srli	a4,a4,0x10
     382:	83c1                	srli	a5,a5,0x10
     384:	40f70533          	sub	a0,a4,a5
     388:	0ff57593          	andi	a1,a0,255
     38c:	e191                	bnez	a1,390 <strcmp+0xc8>
     38e:	8082                	ret
     390:	0ff77713          	andi	a4,a4,255
     394:	0ff7f793          	andi	a5,a5,255
     398:	40f70533          	sub	a0,a4,a5
     39c:	8082                	ret
     39e:	2110                	lbu	a2,0(a0)
     3a0:	2194                	lbu	a3,0(a1)
     3a2:	0505                	addi	a0,a0,1
     3a4:	0585                	addi	a1,a1,1
     3a6:	00d61363          	bne	a2,a3,3ac <strcmp+0xe4>
     3aa:	fa75                	bnez	a2,39e <strcmp+0xd6>
     3ac:	40d60533          	sub	a0,a2,a3
     3b0:	8082                	ret
     3b2:	0511                	addi	a0,a0,4
     3b4:	0591                	addi	a1,a1,4
     3b6:	fed614e3          	bne	a2,a3,39e <strcmp+0xd6>
     3ba:	4501                	li	a0,0
     3bc:	8082                	ret
     3be:	0521                	addi	a0,a0,8
     3c0:	05a1                	addi	a1,a1,8
     3c2:	fcd61ee3          	bne	a2,a3,39e <strcmp+0xd6>
     3c6:	4501                	li	a0,0
     3c8:	8082                	ret
     3ca:	0531                	addi	a0,a0,12
     3cc:	05b1                	addi	a1,a1,12
     3ce:	fcd618e3          	bne	a2,a3,39e <strcmp+0xd6>
     3d2:	4501                	li	a0,0
     3d4:	8082                	ret
     3d6:	0541                	addi	a0,a0,16
     3d8:	05c1                	addi	a1,a1,16
     3da:	fcd612e3          	bne	a2,a3,39e <strcmp+0xd6>
     3de:	4501                	li	a0,0
     3e0:	8082                	ret

000003e2 <NMI_Handler>:
     3e2:	a001                	j	3e2 <NMI_Handler>

000003e4 <HardFault_Handler>:
     3e4:	beef07b7          	lui	a5,0xbeef0
     3e8:	e000e737          	lui	a4,0xe000e
     3ec:	08078793          	addi	a5,a5,128 # beef0080 <_eusrstack+0x9eee8080>
     3f0:	c73c                	sw	a5,72(a4)
     3f2:	a001                	j	3f2 <HardFault_Handler+0xe>

000003f4 <main>:
     3f4:	dfdff2ef          	jal	t0,1f0 <__riscv_save_0>
     3f8:	4509                	li	a0,2
     3fa:	2be5                	jal	9f2 <NVIC_PriorityGroupConfig>
     3fc:	6471                	lui	s0,0x1c
     3fe:	2a1d                	jal	534 <SystemCoreClockUpdate>
     400:	475000ef          	jal	ra,1074 <Delay_Init>
     404:	20040513          	addi	a0,s0,512 # 1c200 <_data_lma+0x15d94>
     408:	4cd000ef          	jal	ra,10d4 <USART_Printf_Init>
     40c:	6529                	lui	a0,0xa
     40e:	c3f50513          	addi	a0,a0,-961 # 9c3f <_data_lma+0x37d3>
     412:	3ea010ef          	jal	ra,17fc <RTC_Init>
     416:	e3418513          	addi	a0,gp,-460 # 200008dc <rtc_time>
     41a:	44e010ef          	jal	ra,1868 <RTC_SetTime>
     41e:	200007b7          	lui	a5,0x20000
     422:	2a87a583          	lw	a1,680(a5) # 200002a8 <SystemCoreClock>
     426:	00006537          	lui	a0,0x6
     42a:	04450513          	addi	a0,a0,68 # 6044 <_read+0x10>
     42e:	52b020ef          	jal	ra,3158 <iprintf>
     432:	24c1                	jal	6f2 <DBGMCU_GetCHIPID>
     434:	85aa                	mv	a1,a0
     436:	00006537          	lui	a0,0x6
     43a:	05450513          	addi	a0,a0,84 # 6054 <_read+0x20>
     43e:	51b020ef          	jal	ra,3158 <iprintf>
     442:	00006537          	lui	a0,0x6
     446:	06450513          	addi	a0,a0,100 # 6064 <_read+0x30>
     44a:	629020ef          	jal	ra,3272 <puts>
     44e:	53f000ef          	jal	ra,118c <MFRC522_Init>
     452:	7da010ef          	jal	ra,1c2c <TIM2_init>
     456:	20040513          	addi	a0,s0,512
     45a:	1e5010ef          	jal	ra,1e3e <USART2_Init>
     45e:	20040513          	addi	a0,s0,512
     462:	4a1010ef          	jal	ra,2102 <USART3_Init>
     466:	20040513          	addi	a0,s0,512
     46a:	01c020ef          	jal	ra,2486 <USART4_Init>
     46e:	6539                	lui	a0,0xe
     470:	10050513          	addi	a0,a0,256 # e100 <_data_lma+0x7c94>
     474:	2a6020ef          	jal	ra,271a <UART6_Init>
     478:	75e010ef          	jal	ra,1bd6 <schedule_init>
     47c:	762010ef          	jal	ra,1bde <schedule_proc>
     480:	bff5                	j	47c <main+0x88>

00000482 <SystemInit>:
     482:	400217b7          	lui	a5,0x40021
     486:	4398                	lw	a4,0(a5)
     488:	f0ff06b7          	lui	a3,0xf0ff0
     48c:	00176713          	ori	a4,a4,1
     490:	c398                	sw	a4,0(a5)
     492:	43d8                	lw	a4,4(a5)
     494:	8f75                	and	a4,a4,a3
     496:	c3d8                	sw	a4,4(a5)
     498:	4398                	lw	a4,0(a5)
     49a:	fef706b7          	lui	a3,0xfef70
     49e:	16fd                	addi	a3,a3,-1
     4a0:	8f75                	and	a4,a4,a3
     4a2:	c398                	sw	a4,0(a5)
     4a4:	4398                	lw	a4,0(a5)
     4a6:	fffc06b7          	lui	a3,0xfffc0
     4aa:	16fd                	addi	a3,a3,-1
     4ac:	8f75                	and	a4,a4,a3
     4ae:	c398                	sw	a4,0(a5)
     4b0:	43d8                	lw	a4,4(a5)
     4b2:	ff0106b7          	lui	a3,0xff010
     4b6:	16fd                	addi	a3,a3,-1
     4b8:	8f75                	and	a4,a4,a3
     4ba:	c3d8                	sw	a4,4(a5)
     4bc:	4398                	lw	a4,0(a5)
     4be:	ec0006b7          	lui	a3,0xec000
     4c2:	16fd                	addi	a3,a3,-1
     4c4:	8f75                	and	a4,a4,a3
     4c6:	c398                	sw	a4,0(a5)
     4c8:	00ff0737          	lui	a4,0xff0
     4cc:	c798                	sw	a4,8(a5)
     4ce:	0207a623          	sw	zero,44(a5) # 4002102c <_eusrstack+0x2001902c>
     4d2:	400246b7          	lui	a3,0x40024
     4d6:	8006a703          	lw	a4,-2048(a3) # 40023800 <_eusrstack+0x2001b800>
     4da:	01076713          	ori	a4,a4,16
     4de:	80e6a023          	sw	a4,-2048(a3)
     4e2:	43d8                	lw	a4,4(a5)
     4e4:	ffc106b7          	lui	a3,0xffc10
     4e8:	16fd                	addi	a3,a3,-1
     4ea:	c3d8                	sw	a4,4(a5)
     4ec:	43d8                	lw	a4,4(a5)
     4ee:	c3d8                	sw	a4,4(a5)
     4f0:	43d8                	lw	a4,4(a5)
     4f2:	40076713          	ori	a4,a4,1024
     4f6:	c3d8                	sw	a4,4(a5)
     4f8:	43d8                	lw	a4,4(a5)
     4fa:	8f75                	and	a4,a4,a3
     4fc:	c3d8                	sw	a4,4(a5)
     4fe:	43d8                	lw	a4,4(a5)
     500:	010006b7          	lui	a3,0x1000
     504:	c3d8                	sw	a4,4(a5)
     506:	4398                	lw	a4,0(a5)
     508:	8f55                	or	a4,a4,a3
     50a:	c398                	sw	a4,0(a5)
     50c:	4398                	lw	a4,0(a5)
     50e:	00671693          	slli	a3,a4,0x6
     512:	fe06dde3          	bgez	a3,50c <SystemInit+0x8a>
     516:	43d8                	lw	a4,4(a5)
     518:	400216b7          	lui	a3,0x40021
     51c:	9b71                	andi	a4,a4,-4
     51e:	c3d8                	sw	a4,4(a5)
     520:	43d8                	lw	a4,4(a5)
     522:	00276713          	ori	a4,a4,2
     526:	c3d8                	sw	a4,4(a5)
     528:	4721                	li	a4,8
     52a:	42dc                	lw	a5,4(a3)
     52c:	8bb1                	andi	a5,a5,12
     52e:	fee79ee3          	bne	a5,a4,52a <SystemInit+0xa8>
     532:	8082                	ret

00000534 <SystemCoreClockUpdate>:
     534:	400216b7          	lui	a3,0x40021
     538:	42d8                	lw	a4,4(a3)
     53a:	200007b7          	lui	a5,0x20000
     53e:	4611                	li	a2,4
     540:	8b31                	andi	a4,a4,12
     542:	2a878793          	addi	a5,a5,680 # 200002a8 <SystemCoreClock>
     546:	00c70563          	beq	a4,a2,550 <SystemCoreClockUpdate+0x1c>
     54a:	4621                	li	a2,8
     54c:	02c70863          	beq	a4,a2,57c <SystemCoreClockUpdate+0x48>
     550:	007a1737          	lui	a4,0x7a1
     554:	20070713          	addi	a4,a4,512 # 7a1200 <_data_lma+0x79ad94>
     558:	c398                	sw	a4,0(a5)
     55a:	40021737          	lui	a4,0x40021
     55e:	4358                	lw	a4,4(a4)
     560:	8311                	srli	a4,a4,0x4
     562:	00f77693          	andi	a3,a4,15
     566:	20000737          	lui	a4,0x20000
     56a:	00070713          	mv	a4,a4
     56e:	9736                	add	a4,a4,a3
     570:	2314                	lbu	a3,0(a4)
     572:	4398                	lw	a4,0(a5)
     574:	00d75733          	srl	a4,a4,a3
     578:	c398                	sw	a4,0(a5)
     57a:	8082                	ret
     57c:	42d8                	lw	a4,4(a3)
     57e:	42d4                	lw	a3,4(a3)
     580:	6641                	lui	a2,0x10
     582:	8349                	srli	a4,a4,0x12
     584:	8b3d                	andi	a4,a4,15
     586:	8ef1                	and	a3,a3,a2
     588:	00270613          	addi	a2,a4,2 # 20000002 <_data_vma+0x2>
     58c:	cf15                	beqz	a4,5c8 <SystemCoreClockUpdate+0x94>
     58e:	473d                	li	a4,15
     590:	02e60f63          	beq	a2,a4,5ce <SystemCoreClockUpdate+0x9a>
     594:	4741                	li	a4,16
     596:	02e60f63          	beq	a2,a4,5d4 <SystemCoreClockUpdate+0xa0>
     59a:	4745                	li	a4,17
     59c:	4581                	li	a1,0
     59e:	00e61363          	bne	a2,a4,5a4 <SystemCoreClockUpdate+0x70>
     5a2:	4641                	li	a2,16
     5a4:	e2a1                	bnez	a3,5e4 <SystemCoreClockUpdate+0xb0>
     5a6:	40024737          	lui	a4,0x40024
     5aa:	80072703          	lw	a4,-2048(a4) # 40023800 <_eusrstack+0x2001b800>
     5ae:	8b41                	andi	a4,a4,16
     5b0:	c70d                	beqz	a4,5da <SystemCoreClockUpdate+0xa6>
     5b2:	007a1737          	lui	a4,0x7a1
     5b6:	20070713          	addi	a4,a4,512 # 7a1200 <_data_lma+0x79ad94>
     5ba:	02c70633          	mul	a2,a4,a2
     5be:	c390                	sw	a2,0(a5)
     5c0:	ddc9                	beqz	a1,55a <SystemCoreClockUpdate+0x26>
     5c2:	4398                	lw	a4,0(a5)
     5c4:	8305                	srli	a4,a4,0x1
     5c6:	bf49                	j	558 <SystemCoreClockUpdate+0x24>
     5c8:	4581                	li	a1,0
     5ca:	4649                	li	a2,18
     5cc:	bfe1                	j	5a4 <SystemCoreClockUpdate+0x70>
     5ce:	4585                	li	a1,1
     5d0:	4635                	li	a2,13
     5d2:	bfc9                	j	5a4 <SystemCoreClockUpdate+0x70>
     5d4:	4581                	li	a1,0
     5d6:	463d                	li	a2,15
     5d8:	b7f1                	j	5a4 <SystemCoreClockUpdate+0x70>
     5da:	003d1737          	lui	a4,0x3d1
     5de:	90070713          	addi	a4,a4,-1792 # 3d0900 <_data_lma+0x3ca494>
     5e2:	bfe1                	j	5ba <SystemCoreClockUpdate+0x86>
     5e4:	40021537          	lui	a0,0x40021
     5e8:	5558                	lw	a4,44(a0)
     5ea:	00f71693          	slli	a3,a4,0xf
     5ee:	5558                	lw	a4,44(a0)
     5f0:	0406df63          	bgez	a3,64e <SystemCoreClockUpdate+0x11a>
     5f4:	8311                	srli	a4,a4,0x4
     5f6:	8b3d                	andi	a4,a4,15
     5f8:	00170693          	addi	a3,a4,1
     5fc:	007a1737          	lui	a4,0x7a1
     600:	20070713          	addi	a4,a4,512 # 7a1200 <_data_lma+0x79ad94>
     604:	02d75733          	divu	a4,a4,a3
     608:	c398                	sw	a4,0(a5)
     60a:	5554                	lw	a3,44(a0)
     60c:	82a1                	srli	a3,a3,0x8
     60e:	8abd                	andi	a3,a3,15
     610:	e28d                	bnez	a3,632 <SystemCoreClockUpdate+0xfe>
     612:	4695                	li	a3,5
     614:	02d70733          	mul	a4,a4,a3
     618:	8305                	srli	a4,a4,0x1
     61a:	c398                	sw	a4,0(a5)
     61c:	40021737          	lui	a4,0x40021
     620:	5758                	lw	a4,44(a4)
     622:	4394                	lw	a3,0(a5)
     624:	8b3d                	andi	a4,a4,15
     626:	0705                	addi	a4,a4,1
     628:	02e6d733          	divu	a4,a3,a4
     62c:	c398                	sw	a4,0(a5)
     62e:	4398                	lw	a4,0(a5)
     630:	b769                	j	5ba <SystemCoreClockUpdate+0x86>
     632:	4505                	li	a0,1
     634:	00a69463          	bne	a3,a0,63c <SystemCoreClockUpdate+0x108>
     638:	46e5                	li	a3,25
     63a:	bfe9                	j	614 <SystemCoreClockUpdate+0xe0>
     63c:	453d                	li	a0,15
     63e:	00a69663          	bne	a3,a0,64a <SystemCoreClockUpdate+0x116>
     642:	46d1                	li	a3,20
     644:	02e68733          	mul	a4,a3,a4
     648:	bfc9                	j	61a <SystemCoreClockUpdate+0xe6>
     64a:	0689                	addi	a3,a3,2
     64c:	bfe5                	j	644 <SystemCoreClockUpdate+0x110>
     64e:	8b3d                	andi	a4,a4,15
     650:	00170693          	addi	a3,a4,1 # 40021001 <_eusrstack+0x20019001>
     654:	007a1737          	lui	a4,0x7a1
     658:	20070713          	addi	a4,a4,512 # 7a1200 <_data_lma+0x79ad94>
     65c:	02d75733          	divu	a4,a4,a3
     660:	b7f1                	j	62c <SystemCoreClockUpdate+0xf8>

00000662 <ADC1_2_IRQHandler>:
     662:	a001                	j	662 <ADC1_2_IRQHandler>

00000664 <handle_reset>:
     664:	20000197          	auipc	gp,0x20000
     668:	44418193          	addi	gp,gp,1092 # 20000aa8 <__global_pointer$>
     66c:	20008117          	auipc	sp,0x20008
     670:	99410113          	addi	sp,sp,-1644 # 20008000 <_eusrstack>
     674:	00006517          	auipc	a0,0x6
     678:	df850513          	addi	a0,a0,-520 # 646c <_data_lma>
     67c:	20000597          	auipc	a1,0x20000
     680:	98458593          	addi	a1,a1,-1660 # 20000000 <_data_vma>
     684:	83018613          	addi	a2,gp,-2000 # 200002d8 <_edata>
     688:	00c5fa63          	bgeu	a1,a2,69c <handle_reset+0x38>
     68c:	00052283          	lw	t0,0(a0)
     690:	0055a023          	sw	t0,0(a1)
     694:	0511                	addi	a0,a0,4
     696:	0591                	addi	a1,a1,4
     698:	fec5eae3          	bltu	a1,a2,68c <handle_reset+0x28>
     69c:	83018513          	addi	a0,gp,-2000 # 200002d8 <_edata>
     6a0:	20001597          	auipc	a1,0x20001
     6a4:	4ec58593          	addi	a1,a1,1260 # 20001b8c <_ebss>
     6a8:	00b57763          	bgeu	a0,a1,6b6 <handle_reset+0x52>
     6ac:	00052023          	sw	zero,0(a0)
     6b0:	0511                	addi	a0,a0,4
     6b2:	feb56de3          	bltu	a0,a1,6ac <handle_reset+0x48>
     6b6:	42fd                	li	t0,31
     6b8:	bc029073          	csrw	0xbc0,t0
     6bc:	42ad                	li	t0,11
     6be:	80429073          	csrw	0x804,t0
     6c2:	000062b7          	lui	t0,0x6
     6c6:	08828293          	addi	t0,t0,136 # 6088 <DAYS_IN_MONTH>
     6ca:	30029073          	csrw	mstatus,t0
     6ce:	00000297          	auipc	t0,0x0
     6d2:	93628293          	addi	t0,t0,-1738 # 4 <_einit>
     6d6:	0032e293          	ori	t0,t0,3
     6da:	30529073          	csrw	mtvec,t0
     6de:	da5ff0ef          	jal	ra,482 <SystemInit>
     6e2:	00000297          	auipc	t0,0x0
     6e6:	d1228293          	addi	t0,t0,-750 # 3f4 <main>
     6ea:	34129073          	csrw	mepc,t0
     6ee:	30200073          	mret

000006f2 <DBGMCU_GetCHIPID>:
     6f2:	1ffff7b7          	lui	a5,0x1ffff
     6f6:	7047a503          	lw	a0,1796(a5) # 1ffff704 <_data_lma+0x1fff9298>
     6fa:	8082                	ret

000006fc <DMA_DeInit>:
     6fc:	411c                	lw	a5,0(a0)
     6fe:	6741                	lui	a4,0x10
     700:	1779                	addi	a4,a4,-2
     702:	8ff9                	and	a5,a5,a4
     704:	c11c                	sw	a5,0(a0)
     706:	00052023          	sw	zero,0(a0)
     70a:	00052223          	sw	zero,4(a0)
     70e:	00052423          	sw	zero,8(a0)
     712:	400207b7          	lui	a5,0x40020
     716:	00052623          	sw	zero,12(a0)
     71a:	00878713          	addi	a4,a5,8 # 40020008 <_eusrstack+0x20018008>
     71e:	00e51763          	bne	a0,a4,72c <DMA_DeInit+0x30>
     722:	43d8                	lw	a4,4(a5)
     724:	00f76713          	ori	a4,a4,15
     728:	c3d8                	sw	a4,4(a5)
     72a:	8082                	ret
     72c:	01c78713          	addi	a4,a5,28
     730:	00e51663          	bne	a0,a4,73c <DMA_DeInit+0x40>
     734:	43d8                	lw	a4,4(a5)
     736:	0f076713          	ori	a4,a4,240
     73a:	b7fd                	j	728 <DMA_DeInit+0x2c>
     73c:	03078713          	addi	a4,a5,48
     740:	00e51863          	bne	a0,a4,750 <DMA_DeInit+0x54>
     744:	43d8                	lw	a4,4(a5)
     746:	6685                	lui	a3,0x1
     748:	f0068693          	addi	a3,a3,-256 # f00 <TIM_InternalClockConfig+0xc>
     74c:	8f55                	or	a4,a4,a3
     74e:	bfe9                	j	728 <DMA_DeInit+0x2c>
     750:	04478713          	addi	a4,a5,68
     754:	00e51563          	bne	a0,a4,75e <DMA_DeInit+0x62>
     758:	43d8                	lw	a4,4(a5)
     75a:	66bd                	lui	a3,0xf
     75c:	bfc5                	j	74c <DMA_DeInit+0x50>
     75e:	05878713          	addi	a4,a5,88
     762:	00e51663          	bne	a0,a4,76e <DMA_DeInit+0x72>
     766:	43d8                	lw	a4,4(a5)
     768:	000f06b7          	lui	a3,0xf0
     76c:	b7c5                	j	74c <DMA_DeInit+0x50>
     76e:	06c78713          	addi	a4,a5,108
     772:	00e51663          	bne	a0,a4,77e <DMA_DeInit+0x82>
     776:	43d8                	lw	a4,4(a5)
     778:	00f006b7          	lui	a3,0xf00
     77c:	bfc1                	j	74c <DMA_DeInit+0x50>
     77e:	08078713          	addi	a4,a5,128
     782:	00e51663          	bne	a0,a4,78e <DMA_DeInit+0x92>
     786:	43d8                	lw	a4,4(a5)
     788:	0f0006b7          	lui	a3,0xf000
     78c:	b7c1                	j	74c <DMA_DeInit+0x50>
     78e:	40878713          	addi	a4,a5,1032
     792:	00e51963          	bne	a0,a4,7a4 <DMA_DeInit+0xa8>
     796:	4047a703          	lw	a4,1028(a5)
     79a:	00f76713          	ori	a4,a4,15
     79e:	40e7a223          	sw	a4,1028(a5)
     7a2:	8082                	ret
     7a4:	41c78713          	addi	a4,a5,1052
     7a8:	00e51763          	bne	a0,a4,7b6 <DMA_DeInit+0xba>
     7ac:	4047a703          	lw	a4,1028(a5)
     7b0:	0f076713          	ori	a4,a4,240
     7b4:	b7ed                	j	79e <DMA_DeInit+0xa2>
     7b6:	43078793          	addi	a5,a5,1072
     7ba:	00f51b63          	bne	a0,a5,7d0 <DMA_DeInit+0xd4>
     7be:	400207b7          	lui	a5,0x40020
     7c2:	4047a703          	lw	a4,1028(a5) # 40020404 <_eusrstack+0x20018404>
     7c6:	6685                	lui	a3,0x1
     7c8:	f0068693          	addi	a3,a3,-256 # f00 <TIM_InternalClockConfig+0xc>
     7cc:	8f55                	or	a4,a4,a3
     7ce:	bfc1                	j	79e <DMA_DeInit+0xa2>
     7d0:	400207b7          	lui	a5,0x40020
     7d4:	44478713          	addi	a4,a5,1092 # 40020444 <_eusrstack+0x20018444>
     7d8:	00e51663          	bne	a0,a4,7e4 <DMA_DeInit+0xe8>
     7dc:	4047a703          	lw	a4,1028(a5)
     7e0:	66bd                	lui	a3,0xf
     7e2:	b7ed                	j	7cc <DMA_DeInit+0xd0>
     7e4:	45878713          	addi	a4,a5,1112
     7e8:	00e51763          	bne	a0,a4,7f6 <DMA_DeInit+0xfa>
     7ec:	4047a703          	lw	a4,1028(a5)
     7f0:	000f06b7          	lui	a3,0xf0
     7f4:	bfe1                	j	7cc <DMA_DeInit+0xd0>
     7f6:	46c78713          	addi	a4,a5,1132
     7fa:	00e51763          	bne	a0,a4,808 <__stack_size+0x8>
     7fe:	4047a703          	lw	a4,1028(a5)
     802:	00f006b7          	lui	a3,0xf00
     806:	b7d9                	j	7cc <DMA_DeInit+0xd0>
     808:	48078713          	addi	a4,a5,1152
     80c:	00e51763          	bne	a0,a4,81a <__stack_size+0x1a>
     810:	4047a703          	lw	a4,1028(a5)
     814:	0f0006b7          	lui	a3,0xf000
     818:	bf55                	j	7cc <DMA_DeInit+0xd0>
     81a:	49078713          	addi	a4,a5,1168
     81e:	00e51963          	bne	a0,a4,830 <__stack_size+0x30>
     822:	4d47a703          	lw	a4,1236(a5)
     826:	00f76713          	ori	a4,a4,15
     82a:	4ce7aa23          	sw	a4,1236(a5)
     82e:	8082                	ret
     830:	4a078713          	addi	a4,a5,1184
     834:	00e51763          	bne	a0,a4,842 <__stack_size+0x42>
     838:	4d47a703          	lw	a4,1236(a5)
     83c:	0f076713          	ori	a4,a4,240
     840:	b7ed                	j	82a <__stack_size+0x2a>
     842:	4b078713          	addi	a4,a5,1200
     846:	00e51963          	bne	a0,a4,858 <__stack_size+0x58>
     84a:	4d47a703          	lw	a4,1236(a5)
     84e:	6685                	lui	a3,0x1
     850:	f0068693          	addi	a3,a3,-256 # f00 <TIM_InternalClockConfig+0xc>
     854:	8f55                	or	a4,a4,a3
     856:	bfd1                	j	82a <__stack_size+0x2a>
     858:	4c078713          	addi	a4,a5,1216
     85c:	fce519e3          	bne	a0,a4,82e <__stack_size+0x2e>
     860:	4d47a703          	lw	a4,1236(a5)
     864:	66bd                	lui	a3,0xf
     866:	b7fd                	j	854 <__stack_size+0x54>

00000868 <DMA_Init>:
     868:	411c                	lw	a5,0(a0)
     86a:	7761                	lui	a4,0xffff8
     86c:	073d                	addi	a4,a4,15
     86e:	5194                	lw	a3,32(a1)
     870:	8f7d                	and	a4,a4,a5
     872:	459c                	lw	a5,8(a1)
     874:	8fd5                	or	a5,a5,a3
     876:	4994                	lw	a3,16(a1)
     878:	8fd5                	or	a5,a5,a3
     87a:	49d4                	lw	a3,20(a1)
     87c:	8fd5                	or	a5,a5,a3
     87e:	4d94                	lw	a3,24(a1)
     880:	8fd5                	or	a5,a5,a3
     882:	4dd4                	lw	a3,28(a1)
     884:	8fd5                	or	a5,a5,a3
     886:	51d4                	lw	a3,36(a1)
     888:	8fd5                	or	a5,a5,a3
     88a:	5594                	lw	a3,40(a1)
     88c:	8fd5                	or	a5,a5,a3
     88e:	8fd9                	or	a5,a5,a4
     890:	c11c                	sw	a5,0(a0)
     892:	45dc                	lw	a5,12(a1)
     894:	c15c                	sw	a5,4(a0)
     896:	419c                	lw	a5,0(a1)
     898:	c51c                	sw	a5,8(a0)
     89a:	41dc                	lw	a5,4(a1)
     89c:	c55c                	sw	a5,12(a0)
     89e:	8082                	ret

000008a0 <DMA_Cmd>:
     8a0:	411c                	lw	a5,0(a0)
     8a2:	c589                	beqz	a1,8ac <DMA_Cmd+0xc>
     8a4:	0017e793          	ori	a5,a5,1
     8a8:	c11c                	sw	a5,0(a0)
     8aa:	8082                	ret
     8ac:	6741                	lui	a4,0x10
     8ae:	1779                	addi	a4,a4,-2
     8b0:	8ff9                	and	a5,a5,a4
     8b2:	bfdd                	j	8a8 <DMA_Cmd+0x8>

000008b4 <DMA_GetCurrDataCounter>:
     8b4:	4148                	lw	a0,4(a0)
     8b6:	0542                	slli	a0,a0,0x10
     8b8:	8141                	srli	a0,a0,0x10
     8ba:	8082                	ret

000008bc <DMA_GetFlagStatus>:
     8bc:	00351793          	slli	a5,a0,0x3
     8c0:	0007da63          	bgez	a5,8d4 <DMA_GetFlagStatus+0x18>
     8c4:	400207b7          	lui	a5,0x40020
     8c8:	4007a783          	lw	a5,1024(a5) # 40020400 <_eusrstack+0x20018400>
     8cc:	8d7d                	and	a0,a0,a5
     8ce:	00a03533          	snez	a0,a0
     8d2:	8082                	ret
     8d4:	00251793          	slli	a5,a0,0x2
     8d8:	0007d763          	bgez	a5,8e6 <DMA_GetFlagStatus+0x2a>
     8dc:	400207b7          	lui	a5,0x40020
     8e0:	4d07a783          	lw	a5,1232(a5) # 400204d0 <_eusrstack+0x200184d0>
     8e4:	b7e5                	j	8cc <DMA_GetFlagStatus+0x10>
     8e6:	400207b7          	lui	a5,0x40020
     8ea:	439c                	lw	a5,0(a5)
     8ec:	b7c5                	j	8cc <DMA_GetFlagStatus+0x10>

000008ee <DMA_ClearFlag>:
     8ee:	00351793          	slli	a5,a0,0x3
     8f2:	0007d763          	bgez	a5,900 <DMA_ClearFlag+0x12>
     8f6:	400207b7          	lui	a5,0x40020
     8fa:	40a7a223          	sw	a0,1028(a5) # 40020404 <_eusrstack+0x20018404>
     8fe:	8082                	ret
     900:	00251793          	slli	a5,a0,0x2
     904:	0007d763          	bgez	a5,912 <DMA_ClearFlag+0x24>
     908:	400207b7          	lui	a5,0x40020
     90c:	4ca7aa23          	sw	a0,1236(a5) # 400204d4 <_eusrstack+0x200184d4>
     910:	8082                	ret
     912:	400207b7          	lui	a5,0x40020
     916:	c3c8                	sw	a0,4(a5)
     918:	8082                	ret

0000091a <DMA_GetITStatus>:
     91a:	8d7ff2ef          	jal	t0,1f0 <__riscv_save_0>
     91e:	3f79                	jal	8bc <DMA_GetFlagStatus>
     920:	b8d5                	j	214 <__riscv_restore_0>

00000922 <DMA_ClearITPendingBit>:
     922:	8cfff2ef          	jal	t0,1f0 <__riscv_save_0>
     926:	37e1                	jal	8ee <DMA_ClearFlag>
     928:	b0f5                	j	214 <__riscv_restore_0>

0000092a <GPIO_Init>:
     92a:	459c                	lw	a5,8(a1)
     92c:	0107f713          	andi	a4,a5,16
     930:	00f7f813          	andi	a6,a5,15
     934:	c701                	beqz	a4,93c <GPIO_Init+0x12>
     936:	41d8                	lw	a4,4(a1)
     938:	00e86833          	or	a6,a6,a4
     93c:	218e                	lhu	a1,0(a1)
     93e:	0ff5f713          	andi	a4,a1,255
     942:	c339                	beqz	a4,988 <GPIO_Init+0x5e>
     944:	4118                	lw	a4,0(a0)
     946:	4681                	li	a3,0
     948:	4e85                	li	t4,1
     94a:	4f3d                	li	t5,15
     94c:	02800f93          	li	t6,40
     950:	04800293          	li	t0,72
     954:	4e21                	li	t3,8
     956:	00de9633          	sll	a2,t4,a3
     95a:	00c5f8b3          	and	a7,a1,a2
     95e:	03161163          	bne	a2,a7,980 <GPIO_Init+0x56>
     962:	00269893          	slli	a7,a3,0x2
     966:	011f1333          	sll	t1,t5,a7
     96a:	fff34313          	not	t1,t1
     96e:	00e37733          	and	a4,t1,a4
     972:	011818b3          	sll	a7,a6,a7
     976:	00e8e733          	or	a4,a7,a4
     97a:	05f79f63          	bne	a5,t6,9d8 <GPIO_Init+0xae>
     97e:	c950                	sw	a2,20(a0)
     980:	0685                	addi	a3,a3,1
     982:	fdc69ae3          	bne	a3,t3,956 <GPIO_Init+0x2c>
     986:	c118                	sw	a4,0(a0)
     988:	0ff00713          	li	a4,255
     98c:	04b77563          	bgeu	a4,a1,9d6 <GPIO_Init+0xac>
     990:	4154                	lw	a3,4(a0)
     992:	4621                	li	a2,8
     994:	4e85                	li	t4,1
     996:	4f3d                	li	t5,15
     998:	02800f93          	li	t6,40
     99c:	04800293          	li	t0,72
     9a0:	4e41                	li	t3,16
     9a2:	00ce98b3          	sll	a7,t4,a2
     9a6:	0115f733          	and	a4,a1,a7
     9aa:	02e89263          	bne	a7,a4,9ce <GPIO_Init+0xa4>
     9ae:	00261713          	slli	a4,a2,0x2
     9b2:	1701                	addi	a4,a4,-32
     9b4:	00ef1333          	sll	t1,t5,a4
     9b8:	fff34313          	not	t1,t1
     9bc:	00d376b3          	and	a3,t1,a3
     9c0:	00e81733          	sll	a4,a6,a4
     9c4:	8ed9                	or	a3,a3,a4
     9c6:	01f79d63          	bne	a5,t6,9e0 <GPIO_Init+0xb6>
     9ca:	01152a23          	sw	a7,20(a0)
     9ce:	0605                	addi	a2,a2,1
     9d0:	fdc619e3          	bne	a2,t3,9a2 <GPIO_Init+0x78>
     9d4:	c154                	sw	a3,4(a0)
     9d6:	8082                	ret
     9d8:	fa5794e3          	bne	a5,t0,980 <GPIO_Init+0x56>
     9dc:	c910                	sw	a2,16(a0)
     9de:	b74d                	j	980 <GPIO_Init+0x56>
     9e0:	fe5797e3          	bne	a5,t0,9ce <GPIO_Init+0xa4>
     9e4:	01152823          	sw	a7,16(a0)
     9e8:	b7dd                	j	9ce <GPIO_Init+0xa4>

000009ea <GPIO_SetBits>:
     9ea:	c90c                	sw	a1,16(a0)
     9ec:	8082                	ret

000009ee <GPIO_ResetBits>:
     9ee:	c94c                	sw	a1,20(a0)
     9f0:	8082                	ret

000009f2 <NVIC_PriorityGroupConfig>:
     9f2:	82a1a823          	sw	a0,-2000(gp) # 200002d8 <_edata>
     9f6:	8082                	ret

000009f8 <NVIC_Init>:
     9f8:	8301a703          	lw	a4,-2000(gp) # 200002d8 <_edata>
     9fc:	4789                	li	a5,2
     9fe:	2110                	lbu	a2,0(a0)
     a00:	02f71163          	bne	a4,a5,a22 <NVIC_Init+0x2a>
     a04:	3114                	lbu	a3,1(a0)
     a06:	478d                	li	a5,3
     a08:	00d7ed63          	bltu	a5,a3,a22 <NVIC_Init+0x2a>
     a0c:	213c                	lbu	a5,2(a0)
     a0e:	069a                	slli	a3,a3,0x6
     a10:	e000e737          	lui	a4,0xe000e
     a14:	0796                	slli	a5,a5,0x5
     a16:	8fd5                	or	a5,a5,a3
     a18:	0ff7f793          	andi	a5,a5,255
     a1c:	9732                	add	a4,a4,a2
     a1e:	40f70023          	sb	a5,1024(a4) # e000e400 <_eusrstack+0xc0006400>
     a22:	4154                	lw	a3,4(a0)
     a24:	4705                	li	a4,1
     a26:	00565793          	srli	a5,a2,0x5
     a2a:	00c71733          	sll	a4,a4,a2
     a2e:	ca89                	beqz	a3,a40 <NVIC_Init+0x48>
     a30:	04078793          	addi	a5,a5,64 # 40020040 <_eusrstack+0x20018040>
     a34:	078a                	slli	a5,a5,0x2
     a36:	e000e6b7          	lui	a3,0xe000e
     a3a:	97b6                	add	a5,a5,a3
     a3c:	c398                	sw	a4,0(a5)
     a3e:	8082                	ret
     a40:	06078793          	addi	a5,a5,96
     a44:	e000e6b7          	lui	a3,0xe000e
     a48:	078a                	slli	a5,a5,0x2
     a4a:	97b6                	add	a5,a5,a3
     a4c:	c398                	sw	a4,0(a5)
     a4e:	0000100f          	fence.i
     a52:	8082                	ret

00000a54 <PWR_BackupAccessCmd>:
     a54:	40007737          	lui	a4,0x40007
     a58:	431c                	lw	a5,0(a4)
     a5a:	c509                	beqz	a0,a64 <PWR_BackupAccessCmd+0x10>
     a5c:	1007e793          	ori	a5,a5,256
     a60:	c31c                	sw	a5,0(a4)
     a62:	8082                	ret
     a64:	eff7f793          	andi	a5,a5,-257
     a68:	bfe5                	j	a60 <PWR_BackupAccessCmd+0xc>

00000a6a <RCC_LSICmd>:
     a6a:	40021737          	lui	a4,0x40021
     a6e:	535c                	lw	a5,36(a4)
     a70:	c509                	beqz	a0,a7a <RCC_LSICmd+0x10>
     a72:	0017e793          	ori	a5,a5,1
     a76:	d35c                	sw	a5,36(a4)
     a78:	8082                	ret
     a7a:	9bf9                	andi	a5,a5,-2
     a7c:	bfed                	j	a76 <RCC_LSICmd+0xc>

00000a7e <RCC_RTCCLKConfig>:
     a7e:	40021737          	lui	a4,0x40021
     a82:	531c                	lw	a5,32(a4)
     a84:	8d5d                	or	a0,a0,a5
     a86:	d308                	sw	a0,32(a4)
     a88:	8082                	ret

00000a8a <RCC_RTCCLKCmd>:
     a8a:	c901                	beqz	a0,a9a <RCC_RTCCLKCmd+0x10>
     a8c:	40021737          	lui	a4,0x40021
     a90:	531c                	lw	a5,32(a4)
     a92:	66a1                	lui	a3,0x8
     a94:	8fd5                	or	a5,a5,a3
     a96:	d31c                	sw	a5,32(a4)
     a98:	8082                	ret
     a9a:	400216b7          	lui	a3,0x40021
     a9e:	529c                	lw	a5,32(a3)
     aa0:	7761                	lui	a4,0xffff8
     aa2:	177d                	addi	a4,a4,-1
     aa4:	8ff9                	and	a5,a5,a4
     aa6:	d29c                	sw	a5,32(a3)
     aa8:	8082                	ret

00000aaa <RCC_GetClocksFreq>:
     aaa:	40021737          	lui	a4,0x40021
     aae:	435c                	lw	a5,4(a4)
     ab0:	4691                	li	a3,4
     ab2:	8bb1                	andi	a5,a5,12
     ab4:	00d78563          	beq	a5,a3,abe <RCC_GetClocksFreq+0x14>
     ab8:	46a1                	li	a3,8
     aba:	06d78463          	beq	a5,a3,b22 <RCC_GetClocksFreq+0x78>
     abe:	007a17b7          	lui	a5,0x7a1
     ac2:	20078793          	addi	a5,a5,512 # 7a1200 <_data_lma+0x79ad94>
     ac6:	c11c                	sw	a5,0(a0)
     ac8:	40021637          	lui	a2,0x40021
     acc:	425c                	lw	a5,4(a2)
     ace:	20000737          	lui	a4,0x20000
     ad2:	01070713          	addi	a4,a4,16 # 20000010 <APBAHBPrescTable>
     ad6:	8391                	srli	a5,a5,0x4
     ad8:	8bbd                	andi	a5,a5,15
     ada:	97ba                	add	a5,a5,a4
     adc:	2394                	lbu	a3,0(a5)
     ade:	411c                	lw	a5,0(a0)
     ae0:	00d7d7b3          	srl	a5,a5,a3
     ae4:	c15c                	sw	a5,4(a0)
     ae6:	4254                	lw	a3,4(a2)
     ae8:	82a1                	srli	a3,a3,0x8
     aea:	8a9d                	andi	a3,a3,7
     aec:	96ba                	add	a3,a3,a4
     aee:	2294                	lbu	a3,0(a3)
     af0:	00d7d6b3          	srl	a3,a5,a3
     af4:	c514                	sw	a3,8(a0)
     af6:	4254                	lw	a3,4(a2)
     af8:	82ad                	srli	a3,a3,0xb
     afa:	8a9d                	andi	a3,a3,7
     afc:	9736                	add	a4,a4,a3
     afe:	2318                	lbu	a4,0(a4)
     b00:	00e7d7b3          	srl	a5,a5,a4
     b04:	c55c                	sw	a5,12(a0)
     b06:	4258                	lw	a4,4(a2)
     b08:	8339                	srli	a4,a4,0xe
     b0a:	00377693          	andi	a3,a4,3
     b0e:	20000737          	lui	a4,0x20000
     b12:	2ac70713          	addi	a4,a4,684 # 200002ac <ADCPrescTable>
     b16:	9736                	add	a4,a4,a3
     b18:	2318                	lbu	a4,0(a4)
     b1a:	02e7d7b3          	divu	a5,a5,a4
     b1e:	c91c                	sw	a5,16(a0)
     b20:	8082                	ret
     b22:	435c                	lw	a5,4(a4)
     b24:	4358                	lw	a4,4(a4)
     b26:	66c1                	lui	a3,0x10
     b28:	83c9                	srli	a5,a5,0x12
     b2a:	8f75                	and	a4,a4,a3
     b2c:	1ffff6b7          	lui	a3,0x1ffff
     b30:	70c6a683          	lw	a3,1804(a3) # 1ffff70c <_data_lma+0x1fff92a0>
     b34:	8bbd                	andi	a5,a5,15
     b36:	0789                	addi	a5,a5,2
     b38:	01169613          	slli	a2,a3,0x11
     b3c:	00064863          	bltz	a2,b4c <RCC_GetClocksFreq+0xa2>
     b40:	46c5                	li	a3,17
     b42:	4601                	li	a2,0
     b44:	02d79263          	bne	a5,a3,b68 <RCC_GetClocksFreq+0xbe>
     b48:	47c9                	li	a5,18
     b4a:	a839                	j	b68 <RCC_GetClocksFreq+0xbe>
     b4c:	4689                	li	a3,2
     b4e:	02d78f63          	beq	a5,a3,b8c <RCC_GetClocksFreq+0xe2>
     b52:	46bd                	li	a3,15
     b54:	02d78e63          	beq	a5,a3,b90 <RCC_GetClocksFreq+0xe6>
     b58:	46c1                	li	a3,16
     b5a:	02d78e63          	beq	a5,a3,b96 <RCC_GetClocksFreq+0xec>
     b5e:	46c5                	li	a3,17
     b60:	4601                	li	a2,0
     b62:	00d79363          	bne	a5,a3,b68 <RCC_GetClocksFreq+0xbe>
     b66:	47c1                	li	a5,16
     b68:	ef1d                	bnez	a4,ba6 <RCC_GetClocksFreq+0xfc>
     b6a:	40024737          	lui	a4,0x40024
     b6e:	80072703          	lw	a4,-2048(a4) # 40023800 <_eusrstack+0x2001b800>
     b72:	8b41                	andi	a4,a4,16
     b74:	c705                	beqz	a4,b9c <RCC_GetClocksFreq+0xf2>
     b76:	007a1737          	lui	a4,0x7a1
     b7a:	20070713          	addi	a4,a4,512 # 7a1200 <_data_lma+0x79ad94>
     b7e:	02f707b3          	mul	a5,a4,a5
     b82:	c11c                	sw	a5,0(a0)
     b84:	d231                	beqz	a2,ac8 <RCC_GetClocksFreq+0x1e>
     b86:	411c                	lw	a5,0(a0)
     b88:	8385                	srli	a5,a5,0x1
     b8a:	bf35                	j	ac6 <RCC_GetClocksFreq+0x1c>
     b8c:	4601                	li	a2,0
     b8e:	bf6d                	j	b48 <RCC_GetClocksFreq+0x9e>
     b90:	4605                	li	a2,1
     b92:	47b5                	li	a5,13
     b94:	bfd1                	j	b68 <RCC_GetClocksFreq+0xbe>
     b96:	4601                	li	a2,0
     b98:	47bd                	li	a5,15
     b9a:	b7f9                	j	b68 <RCC_GetClocksFreq+0xbe>
     b9c:	003d1737          	lui	a4,0x3d1
     ba0:	90070713          	addi	a4,a4,-1792 # 3d0900 <_data_lma+0x3ca494>
     ba4:	bfe9                	j	b7e <RCC_GetClocksFreq+0xd4>
     ba6:	400215b7          	lui	a1,0x40021
     baa:	55d8                	lw	a4,44(a1)
     bac:	00f71693          	slli	a3,a4,0xf
     bb0:	55d8                	lw	a4,44(a1)
     bb2:	0406df63          	bgez	a3,c10 <RCC_GetClocksFreq+0x166>
     bb6:	8311                	srli	a4,a4,0x4
     bb8:	8b3d                	andi	a4,a4,15
     bba:	00170693          	addi	a3,a4,1
     bbe:	007a1737          	lui	a4,0x7a1
     bc2:	20070713          	addi	a4,a4,512 # 7a1200 <_data_lma+0x79ad94>
     bc6:	02d75733          	divu	a4,a4,a3
     bca:	c118                	sw	a4,0(a0)
     bcc:	55d4                	lw	a3,44(a1)
     bce:	82a1                	srli	a3,a3,0x8
     bd0:	8abd                	andi	a3,a3,15
     bd2:	e28d                	bnez	a3,bf4 <RCC_GetClocksFreq+0x14a>
     bd4:	4695                	li	a3,5
     bd6:	02d70733          	mul	a4,a4,a3
     bda:	8305                	srli	a4,a4,0x1
     bdc:	c118                	sw	a4,0(a0)
     bde:	40021737          	lui	a4,0x40021
     be2:	5758                	lw	a4,44(a4)
     be4:	4114                	lw	a3,0(a0)
     be6:	8b3d                	andi	a4,a4,15
     be8:	0705                	addi	a4,a4,1
     bea:	02e6d733          	divu	a4,a3,a4
     bee:	c118                	sw	a4,0(a0)
     bf0:	4118                	lw	a4,0(a0)
     bf2:	b771                	j	b7e <RCC_GetClocksFreq+0xd4>
     bf4:	4585                	li	a1,1
     bf6:	00b69463          	bne	a3,a1,bfe <RCC_GetClocksFreq+0x154>
     bfa:	46e5                	li	a3,25
     bfc:	bfe9                	j	bd6 <RCC_GetClocksFreq+0x12c>
     bfe:	45bd                	li	a1,15
     c00:	00b69663          	bne	a3,a1,c0c <RCC_GetClocksFreq+0x162>
     c04:	46d1                	li	a3,20
     c06:	02e68733          	mul	a4,a3,a4
     c0a:	bfc9                	j	bdc <RCC_GetClocksFreq+0x132>
     c0c:	0689                	addi	a3,a3,2
     c0e:	bfe5                	j	c06 <RCC_GetClocksFreq+0x15c>
     c10:	8b3d                	andi	a4,a4,15
     c12:	00170693          	addi	a3,a4,1 # 40021001 <_eusrstack+0x20019001>
     c16:	007a1737          	lui	a4,0x7a1
     c1a:	20070713          	addi	a4,a4,512 # 7a1200 <_data_lma+0x79ad94>
     c1e:	02d75733          	divu	a4,a4,a3
     c22:	b7f1                	j	bee <RCC_GetClocksFreq+0x144>

00000c24 <RCC_AHBPeriphClockCmd>:
     c24:	c599                	beqz	a1,c32 <RCC_AHBPeriphClockCmd+0xe>
     c26:	40021737          	lui	a4,0x40021
     c2a:	4b5c                	lw	a5,20(a4)
     c2c:	8d5d                	or	a0,a0,a5
     c2e:	cb48                	sw	a0,20(a4)
     c30:	8082                	ret
     c32:	400217b7          	lui	a5,0x40021
     c36:	4bd8                	lw	a4,20(a5)
     c38:	fff54513          	not	a0,a0
     c3c:	8d79                	and	a0,a0,a4
     c3e:	cbc8                	sw	a0,20(a5)
     c40:	8082                	ret

00000c42 <RCC_APB2PeriphClockCmd>:
     c42:	c599                	beqz	a1,c50 <RCC_APB2PeriphClockCmd+0xe>
     c44:	40021737          	lui	a4,0x40021
     c48:	4f1c                	lw	a5,24(a4)
     c4a:	8d5d                	or	a0,a0,a5
     c4c:	cf08                	sw	a0,24(a4)
     c4e:	8082                	ret
     c50:	400217b7          	lui	a5,0x40021
     c54:	4f98                	lw	a4,24(a5)
     c56:	fff54513          	not	a0,a0
     c5a:	8d79                	and	a0,a0,a4
     c5c:	cf88                	sw	a0,24(a5)
     c5e:	8082                	ret

00000c60 <RCC_APB1PeriphClockCmd>:
     c60:	c599                	beqz	a1,c6e <RCC_APB1PeriphClockCmd+0xe>
     c62:	40021737          	lui	a4,0x40021
     c66:	4f5c                	lw	a5,28(a4)
     c68:	8d5d                	or	a0,a0,a5
     c6a:	cf48                	sw	a0,28(a4)
     c6c:	8082                	ret
     c6e:	400217b7          	lui	a5,0x40021
     c72:	4fd8                	lw	a4,28(a5)
     c74:	fff54513          	not	a0,a0
     c78:	8d79                	and	a0,a0,a4
     c7a:	cfc8                	sw	a0,28(a5)
     c7c:	8082                	ret

00000c7e <RCC_GetFlagStatus>:
     c7e:	00555793          	srli	a5,a0,0x5
     c82:	4705                	li	a4,1
     c84:	00e79963          	bne	a5,a4,c96 <RCC_GetFlagStatus+0x18>
     c88:	400217b7          	lui	a5,0x40021
     c8c:	439c                	lw	a5,0(a5)
     c8e:	00a7d533          	srl	a0,a5,a0
     c92:	8905                	andi	a0,a0,1
     c94:	8082                	ret
     c96:	4709                	li	a4,2
     c98:	00e79663          	bne	a5,a4,ca4 <RCC_GetFlagStatus+0x26>
     c9c:	400217b7          	lui	a5,0x40021
     ca0:	539c                	lw	a5,32(a5)
     ca2:	b7f5                	j	c8e <RCC_GetFlagStatus+0x10>
     ca4:	400217b7          	lui	a5,0x40021
     ca8:	53dc                	lw	a5,36(a5)
     caa:	b7d5                	j	c8e <RCC_GetFlagStatus+0x10>

00000cac <RTC_EnterConfigMode>:
     cac:	400037b7          	lui	a5,0x40003
     cb0:	8047d703          	lhu	a4,-2044(a5) # 40002804 <_eusrstack+0x1fffa804>
     cb4:	01076713          	ori	a4,a4,16
     cb8:	80e79223          	sh	a4,-2044(a5)
     cbc:	8082                	ret

00000cbe <RTC_ExitConfigMode>:
     cbe:	40003737          	lui	a4,0x40003
     cc2:	80475783          	lhu	a5,-2044(a4) # 40002804 <_eusrstack+0x1fffa804>
     cc6:	07c2                	slli	a5,a5,0x10
     cc8:	83c1                	srli	a5,a5,0x10
     cca:	9bbd                	andi	a5,a5,-17
     ccc:	07c2                	slli	a5,a5,0x10
     cce:	83c1                	srli	a5,a5,0x10
     cd0:	80f71223          	sh	a5,-2044(a4)
     cd4:	8082                	ret

00000cd6 <RTC_GetCounter>:
     cd6:	40003637          	lui	a2,0x40003
     cda:	81865683          	lhu	a3,-2024(a2) # 40002818 <_eusrstack+0x1fffa818>
     cde:	81865703          	lhu	a4,-2024(a2)
     ce2:	0742                	slli	a4,a4,0x10
     ce4:	8341                	srli	a4,a4,0x10
     ce6:	fed71ae3          	bne	a4,a3,cda <RTC_GetCounter+0x4>
     cea:	40003637          	lui	a2,0x40003
     cee:	81c65683          	lhu	a3,-2020(a2) # 4000281c <_eusrstack+0x1fffa81c>
     cf2:	81c65783          	lhu	a5,-2020(a2)
     cf6:	07c2                	slli	a5,a5,0x10
     cf8:	83c1                	srli	a5,a5,0x10
     cfa:	fed79ae3          	bne	a5,a3,cee <RTC_GetCounter+0x18>
     cfe:	400035b7          	lui	a1,0x40003
     d02:	8185d603          	lhu	a2,-2024(a1) # 40002818 <_eusrstack+0x1fffa818>
     d06:	8185d503          	lhu	a0,-2024(a1)
     d0a:	0542                	slli	a0,a0,0x10
     d0c:	8141                	srli	a0,a0,0x10
     d0e:	fec51ae3          	bne	a0,a2,d02 <RTC_GetCounter+0x2c>
     d12:	00a70c63          	beq	a4,a0,d2a <RTC_GetCounter+0x54>
     d16:	400036b7          	lui	a3,0x40003
     d1a:	81c6d703          	lhu	a4,-2020(a3) # 4000281c <_eusrstack+0x1fffa81c>
     d1e:	81c6d783          	lhu	a5,-2020(a3)
     d22:	07c2                	slli	a5,a5,0x10
     d24:	83c1                	srli	a5,a5,0x10
     d26:	fee79ae3          	bne	a5,a4,d1a <RTC_GetCounter+0x44>
     d2a:	0542                	slli	a0,a0,0x10
     d2c:	8d5d                	or	a0,a0,a5
     d2e:	8082                	ret

00000d30 <RTC_SetCounter>:
     d30:	cc0ff2ef          	jal	t0,1f0 <__riscv_save_0>
     d34:	1141                	addi	sp,sp,-16
     d36:	c62a                	sw	a0,12(sp)
     d38:	3f95                	jal	cac <RTC_EnterConfigMode>
     d3a:	4532                	lw	a0,12(sp)
     d3c:	400037b7          	lui	a5,0x40003
     d40:	01055713          	srli	a4,a0,0x10
     d44:	0542                	slli	a0,a0,0x10
     d46:	80e79c23          	sh	a4,-2024(a5) # 40002818 <_eusrstack+0x1fffa818>
     d4a:	8141                	srli	a0,a0,0x10
     d4c:	80a79e23          	sh	a0,-2020(a5)
     d50:	37bd                	jal	cbe <RTC_ExitConfigMode>
     d52:	0141                	addi	sp,sp,16
     d54:	cc0ff06f          	j	214 <__riscv_restore_0>

00000d58 <RTC_SetPrescaler>:
     d58:	c98ff2ef          	jal	t0,1f0 <__riscv_save_0>
     d5c:	1141                	addi	sp,sp,-16
     d5e:	c62a                	sw	a0,12(sp)
     d60:	37b1                	jal	cac <RTC_EnterConfigMode>
     d62:	4532                	lw	a0,12(sp)
     d64:	400037b7          	lui	a5,0x40003
     d68:	01055713          	srli	a4,a0,0x10
     d6c:	8b3d                	andi	a4,a4,15
     d6e:	0542                	slli	a0,a0,0x10
     d70:	80e79423          	sh	a4,-2040(a5) # 40002808 <_eusrstack+0x1fffa808>
     d74:	8141                	srli	a0,a0,0x10
     d76:	80a79623          	sh	a0,-2036(a5)
     d7a:	3791                	jal	cbe <RTC_ExitConfigMode>
     d7c:	0141                	addi	sp,sp,16
     d7e:	c96ff06f          	j	214 <__riscv_restore_0>

00000d82 <RTC_WaitForLastTask>:
     d82:	40003737          	lui	a4,0x40003
     d86:	80475783          	lhu	a5,-2044(a4) # 40002804 <_eusrstack+0x1fffa804>
     d8a:	0207f793          	andi	a5,a5,32
     d8e:	dfe5                	beqz	a5,d86 <RTC_WaitForLastTask+0x4>
     d90:	8082                	ret

00000d92 <RTC_WaitForSynchro>:
     d92:	40003737          	lui	a4,0x40003
     d96:	80475783          	lhu	a5,-2044(a4) # 40002804 <_eusrstack+0x1fffa804>
     d9a:	07c2                	slli	a5,a5,0x10
     d9c:	83c1                	srli	a5,a5,0x10
     d9e:	9bdd                	andi	a5,a5,-9
     da0:	07c2                	slli	a5,a5,0x10
     da2:	83c1                	srli	a5,a5,0x10
     da4:	80f71223          	sh	a5,-2044(a4)
     da8:	40003737          	lui	a4,0x40003
     dac:	80475783          	lhu	a5,-2044(a4) # 40002804 <_eusrstack+0x1fffa804>
     db0:	8ba1                	andi	a5,a5,8
     db2:	dfed                	beqz	a5,dac <RTC_WaitForSynchro+0x1a>
     db4:	8082                	ret

00000db6 <SPI_Init>:
     db6:	211a                	lhu	a4,0(a0)
     db8:	678d                	lui	a5,0x3
     dba:	04078793          	addi	a5,a5,64 # 3040 <_free_r+0x64>
     dbe:	21b6                	lhu	a3,2(a1)
     dc0:	8f7d                	and	a4,a4,a5
     dc2:	219e                	lhu	a5,0(a1)
     dc4:	8fd5                	or	a5,a5,a3
     dc6:	21d6                	lhu	a3,4(a1)
     dc8:	8fd5                	or	a5,a5,a3
     dca:	21f6                	lhu	a3,6(a1)
     dcc:	8fd5                	or	a5,a5,a3
     dce:	2596                	lhu	a3,8(a1)
     dd0:	8fd5                	or	a5,a5,a3
     dd2:	25b6                	lhu	a3,10(a1)
     dd4:	8fd5                	or	a5,a5,a3
     dd6:	25d6                	lhu	a3,12(a1)
     dd8:	8fd5                	or	a5,a5,a3
     dda:	25f6                	lhu	a3,14(a1)
     ddc:	8fd5                	or	a5,a5,a3
     dde:	8fd9                	or	a5,a5,a4
     de0:	a11e                	sh	a5,0(a0)
     de2:	2d5a                	lhu	a4,28(a0)
     de4:	77fd                	lui	a5,0xfffff
     de6:	7ff78793          	addi	a5,a5,2047 # fffff7ff <_eusrstack+0xdfff77ff>
     dea:	8ff9                	and	a5,a5,a4
     dec:	ad5e                	sh	a5,28(a0)
     dee:	299e                	lhu	a5,16(a1)
     df0:	a91e                	sh	a5,16(a0)
     df2:	8082                	ret

00000df4 <SPI_Cmd>:
     df4:	211e                	lhu	a5,0(a0)
     df6:	c589                	beqz	a1,e00 <SPI_Cmd+0xc>
     df8:	0407e793          	ori	a5,a5,64
     dfc:	a11e                	sh	a5,0(a0)
     dfe:	8082                	ret
     e00:	07c2                	slli	a5,a5,0x10
     e02:	83c1                	srli	a5,a5,0x10
     e04:	fbf7f793          	andi	a5,a5,-65
     e08:	07c2                	slli	a5,a5,0x10
     e0a:	83c1                	srli	a5,a5,0x10
     e0c:	bfc5                	j	dfc <SPI_Cmd+0x8>

00000e0e <SPI_I2S_SendData>:
     e0e:	a54e                	sh	a1,12(a0)
     e10:	8082                	ret

00000e12 <SPI_I2S_ReceiveData>:
     e12:	254a                	lhu	a0,12(a0)
     e14:	8082                	ret

00000e16 <SPI_I2S_GetFlagStatus>:
     e16:	250a                	lhu	a0,8(a0)
     e18:	8d6d                	and	a0,a0,a1
     e1a:	00a03533          	snez	a0,a0
     e1e:	8082                	ret

00000e20 <TIM_TimeBaseInit>:
     e20:	211e                	lhu	a5,0(a0)
     e22:	40013737          	lui	a4,0x40013
     e26:	c0070693          	addi	a3,a4,-1024 # 40012c00 <_eusrstack+0x2000ac00>
     e2a:	07c2                	slli	a5,a5,0x10
     e2c:	83c1                	srli	a5,a5,0x10
     e2e:	04d50063          	beq	a0,a3,e6e <TIM_TimeBaseInit+0x4e>
     e32:	400006b7          	lui	a3,0x40000
     e36:	02d50c63          	beq	a0,a3,e6e <TIM_TimeBaseInit+0x4e>
     e3a:	40068693          	addi	a3,a3,1024 # 40000400 <_eusrstack+0x1fff8400>
     e3e:	02d50863          	beq	a0,a3,e6e <TIM_TimeBaseInit+0x4e>
     e42:	400016b7          	lui	a3,0x40001
     e46:	80068613          	addi	a2,a3,-2048 # 40000800 <_eusrstack+0x1fff8800>
     e4a:	02c50263          	beq	a0,a2,e6e <TIM_TimeBaseInit+0x4e>
     e4e:	c0068693          	addi	a3,a3,-1024
     e52:	00d50e63          	beq	a0,a3,e6e <TIM_TimeBaseInit+0x4e>
     e56:	40070713          	addi	a4,a4,1024
     e5a:	00e50a63          	beq	a0,a4,e6e <TIM_TimeBaseInit+0x4e>
     e5e:	40015737          	lui	a4,0x40015
     e62:	c0070693          	addi	a3,a4,-1024 # 40014c00 <_eusrstack+0x2000cc00>
     e66:	00d50463          	beq	a0,a3,e6e <TIM_TimeBaseInit+0x4e>
     e6a:	00e51663          	bne	a0,a4,e76 <TIM_TimeBaseInit+0x56>
     e6e:	21ba                	lhu	a4,2(a1)
     e70:	f8f7f793          	andi	a5,a5,-113
     e74:	8fd9                	or	a5,a5,a4
     e76:	40001737          	lui	a4,0x40001
     e7a:	00e50c63          	beq	a0,a4,e92 <TIM_TimeBaseInit+0x72>
     e7e:	40070713          	addi	a4,a4,1024 # 40001400 <_eusrstack+0x1fff9400>
     e82:	00e50863          	beq	a0,a4,e92 <TIM_TimeBaseInit+0x72>
     e86:	cff7f793          	andi	a5,a5,-769
     e8a:	21fa                	lhu	a4,6(a1)
     e8c:	07c2                	slli	a5,a5,0x10
     e8e:	83c1                	srli	a5,a5,0x10
     e90:	8fd9                	or	a5,a5,a4
     e92:	a11e                	sh	a5,0(a0)
     e94:	21de                	lhu	a5,4(a1)
     e96:	b55e                	sh	a5,44(a0)
     e98:	219e                	lhu	a5,0(a1)
     e9a:	b51e                	sh	a5,40(a0)
     e9c:	400137b7          	lui	a5,0x40013
     ea0:	c0078713          	addi	a4,a5,-1024 # 40012c00 <_eusrstack+0x2000ac00>
     ea4:	00e50e63          	beq	a0,a4,ec0 <TIM_TimeBaseInit+0xa0>
     ea8:	40078793          	addi	a5,a5,1024
     eac:	00f50a63          	beq	a0,a5,ec0 <TIM_TimeBaseInit+0xa0>
     eb0:	400157b7          	lui	a5,0x40015
     eb4:	c0078713          	addi	a4,a5,-1024 # 40014c00 <_eusrstack+0x2000cc00>
     eb8:	00e50463          	beq	a0,a4,ec0 <TIM_TimeBaseInit+0xa0>
     ebc:	00f51463          	bne	a0,a5,ec4 <TIM_TimeBaseInit+0xa4>
     ec0:	259c                	lbu	a5,8(a1)
     ec2:	b91e                	sh	a5,48(a0)
     ec4:	4785                	li	a5,1
     ec6:	a95e                	sh	a5,20(a0)
     ec8:	8082                	ret

00000eca <TIM_Cmd>:
     eca:	211e                	lhu	a5,0(a0)
     ecc:	c589                	beqz	a1,ed6 <TIM_Cmd+0xc>
     ece:	0017e793          	ori	a5,a5,1
     ed2:	a11e                	sh	a5,0(a0)
     ed4:	8082                	ret
     ed6:	07c2                	slli	a5,a5,0x10
     ed8:	83c1                	srli	a5,a5,0x10
     eda:	9bf9                	andi	a5,a5,-2
     edc:	07c2                	slli	a5,a5,0x10
     ede:	83c1                	srli	a5,a5,0x10
     ee0:	bfcd                	j	ed2 <TIM_Cmd+0x8>

00000ee2 <TIM_ITConfig>:
     ee2:	255e                	lhu	a5,12(a0)
     ee4:	c601                	beqz	a2,eec <TIM_ITConfig+0xa>
     ee6:	8ddd                	or	a1,a1,a5
     ee8:	a54e                	sh	a1,12(a0)
     eea:	8082                	ret
     eec:	fff5c593          	not	a1,a1
     ef0:	8dfd                	and	a1,a1,a5
     ef2:	bfdd                	j	ee8 <TIM_ITConfig+0x6>

00000ef4 <TIM_InternalClockConfig>:
     ef4:	251e                	lhu	a5,8(a0)
     ef6:	07c2                	slli	a5,a5,0x10
     ef8:	83c1                	srli	a5,a5,0x10
     efa:	9be1                	andi	a5,a5,-8
     efc:	07c2                	slli	a5,a5,0x10
     efe:	83c1                	srli	a5,a5,0x10
     f00:	a51e                	sh	a5,8(a0)
     f02:	8082                	ret

00000f04 <TIM_GetFlagStatus>:
     f04:	290a                	lhu	a0,16(a0)
     f06:	8d6d                	and	a0,a0,a1
     f08:	00a03533          	snez	a0,a0
     f0c:	8082                	ret

00000f0e <TIM_ClearFlag>:
     f0e:	fff5c593          	not	a1,a1
     f12:	05c2                	slli	a1,a1,0x10
     f14:	81c1                	srli	a1,a1,0x10
     f16:	a90e                	sh	a1,16(a0)
     f18:	8082                	ret

00000f1a <TIM_ClearITPendingBit>:
     f1a:	fff5c593          	not	a1,a1
     f1e:	05c2                	slli	a1,a1,0x10
     f20:	81c1                	srli	a1,a1,0x10
     f22:	a90e                	sh	a1,16(a0)
     f24:	8082                	ret

00000f26 <USART_Init>:
     f26:	acaff2ef          	jal	t0,1f0 <__riscv_save_0>
     f2a:	2916                	lhu	a3,16(a0)
     f2c:	77f5                	lui	a5,0xffffd
     f2e:	17fd                	addi	a5,a5,-1
     f30:	8ff5                	and	a5,a5,a3
     f32:	21f6                	lhu	a3,6(a1)
     f34:	25da                	lhu	a4,12(a1)
     f36:	7179                	addi	sp,sp,-48
     f38:	8fd5                	or	a5,a5,a3
     f3a:	a91e                	sh	a5,16(a0)
     f3c:	2556                	lhu	a3,12(a0)
     f3e:	77fd                	lui	a5,0xfffff
     f40:	9f378793          	addi	a5,a5,-1549 # ffffe9f3 <_eusrstack+0xdfff69f3>
     f44:	8ff5                	and	a5,a5,a3
     f46:	21d6                	lhu	a3,4(a1)
     f48:	842a                	mv	s0,a0
     f4a:	c62e                	sw	a1,12(sp)
     f4c:	8fd5                	or	a5,a5,a3
     f4e:	2596                	lhu	a3,8(a1)
     f50:	8fd5                	or	a5,a5,a3
     f52:	25b6                	lhu	a3,10(a1)
     f54:	8fd5                	or	a5,a5,a3
     f56:	a55e                	sh	a5,12(a0)
     f58:	295e                	lhu	a5,20(a0)
     f5a:	07c2                	slli	a5,a5,0x10
     f5c:	83c1                	srli	a5,a5,0x10
     f5e:	cff7f793          	andi	a5,a5,-769
     f62:	8fd9                	or	a5,a5,a4
     f64:	a95e                	sh	a5,20(a0)
     f66:	0868                	addi	a0,sp,28
     f68:	3689                	jal	aaa <RCC_GetClocksFreq>
     f6a:	400147b7          	lui	a5,0x40014
     f6e:	80078793          	addi	a5,a5,-2048 # 40013800 <_eusrstack+0x2000b800>
     f72:	45b2                	lw	a1,12(sp)
     f74:	02f41e63          	bne	s0,a5,fb0 <USART_Init+0x8a>
     f78:	57a2                	lw	a5,40(sp)
     f7a:	4765                	li	a4,25
     f7c:	02e787b3          	mul	a5,a5,a4
     f80:	4198                	lw	a4,0(a1)
     f82:	06400693          	li	a3,100
     f86:	070a                	slli	a4,a4,0x2
     f88:	02e7d7b3          	divu	a5,a5,a4
     f8c:	02d7d733          	divu	a4,a5,a3
     f90:	02d7f7b3          	remu	a5,a5,a3
     f94:	0712                	slli	a4,a4,0x4
     f96:	0792                	slli	a5,a5,0x4
     f98:	03278793          	addi	a5,a5,50
     f9c:	02d7d7b3          	divu	a5,a5,a3
     fa0:	8bbd                	andi	a5,a5,15
     fa2:	8fd9                	or	a5,a5,a4
     fa4:	07c2                	slli	a5,a5,0x10
     fa6:	83c1                	srli	a5,a5,0x10
     fa8:	a41e                	sh	a5,8(s0)
     faa:	6145                	addi	sp,sp,48
     fac:	a68ff06f          	j	214 <__riscv_restore_0>
     fb0:	5792                	lw	a5,36(sp)
     fb2:	b7e1                	j	f7a <USART_Init+0x54>

00000fb4 <USART_Cmd>:
     fb4:	c591                	beqz	a1,fc0 <USART_Cmd+0xc>
     fb6:	255e                	lhu	a5,12(a0)
     fb8:	6709                	lui	a4,0x2
     fba:	8fd9                	or	a5,a5,a4
     fbc:	a55e                	sh	a5,12(a0)
     fbe:	8082                	ret
     fc0:	255a                	lhu	a4,12(a0)
     fc2:	77f9                	lui	a5,0xffffe
     fc4:	17fd                	addi	a5,a5,-1
     fc6:	8ff9                	and	a5,a5,a4
     fc8:	bfd5                	j	fbc <USART_Cmd+0x8>

00000fca <USART_ITConfig>:
     fca:	0ff5f713          	andi	a4,a1,255
     fce:	4785                	li	a5,1
     fd0:	8315                	srli	a4,a4,0x5
     fd2:	00b795b3          	sll	a1,a5,a1
     fd6:	00f71963          	bne	a4,a5,fe8 <USART_ITConfig+0x1e>
     fda:	00c50793          	addi	a5,a0,12
     fde:	4398                	lw	a4,0(a5)
     fe0:	ce01                	beqz	a2,ff8 <USART_ITConfig+0x2e>
     fe2:	8dd9                	or	a1,a1,a4
     fe4:	c38c                	sw	a1,0(a5)
     fe6:	8082                	ret
     fe8:	4689                	li	a3,2
     fea:	01450793          	addi	a5,a0,20
     fee:	fed718e3          	bne	a4,a3,fde <USART_ITConfig+0x14>
     ff2:	01050793          	addi	a5,a0,16
     ff6:	b7e5                	j	fde <USART_ITConfig+0x14>
     ff8:	fff5c593          	not	a1,a1
     ffc:	8df9                	and	a1,a1,a4
     ffe:	b7dd                	j	fe4 <USART_ITConfig+0x1a>

00001000 <USART_DMACmd>:
    1000:	295e                	lhu	a5,20(a0)
    1002:	c601                	beqz	a2,100a <USART_DMACmd+0xa>
    1004:	8ddd                	or	a1,a1,a5
    1006:	a94e                	sh	a1,20(a0)
    1008:	8082                	ret
    100a:	fff5c593          	not	a1,a1
    100e:	8dfd                	and	a1,a1,a5
    1010:	bfdd                	j	1006 <USART_DMACmd+0x6>

00001012 <USART_SendData>:
    1012:	1ff5f593          	andi	a1,a1,511
    1016:	a14e                	sh	a1,4(a0)
    1018:	8082                	ret

0000101a <USART_GetFlagStatus>:
    101a:	210a                	lhu	a0,0(a0)
    101c:	8d6d                	and	a0,a0,a1
    101e:	00a03533          	snez	a0,a0
    1022:	8082                	ret

00001024 <USART_GetITStatus>:
    1024:	0ff5f713          	andi	a4,a1,255
    1028:	4685                	li	a3,1
    102a:	8315                	srli	a4,a4,0x5
    102c:	00b697b3          	sll	a5,a3,a1
    1030:	02d71163          	bne	a4,a3,1052 <USART_GetITStatus+0x2e>
    1034:	255a                	lhu	a4,12(a0)
    1036:	8ff9                	and	a5,a5,a4
    1038:	211a                	lhu	a4,0(a0)
    103a:	4501                	li	a0,0
    103c:	0742                	slli	a4,a4,0x10
    103e:	8341                	srli	a4,a4,0x10
    1040:	cb81                	beqz	a5,1050 <USART_GetITStatus+0x2c>
    1042:	4505                	li	a0,1
    1044:	81a1                	srli	a1,a1,0x8
    1046:	00b515b3          	sll	a1,a0,a1
    104a:	8f6d                	and	a4,a4,a1
    104c:	00e03533          	snez	a0,a4
    1050:	8082                	ret
    1052:	4689                	li	a3,2
    1054:	00d71463          	bne	a4,a3,105c <USART_GetITStatus+0x38>
    1058:	291a                	lhu	a4,16(a0)
    105a:	bff1                	j	1036 <USART_GetITStatus+0x12>
    105c:	295a                	lhu	a4,20(a0)
    105e:	bfe1                	j	1036 <USART_GetITStatus+0x12>

00001060 <USART_ClearITPendingBit>:
    1060:	81a1                	srli	a1,a1,0x8
    1062:	4785                	li	a5,1
    1064:	00b797b3          	sll	a5,a5,a1
    1068:	fff7c793          	not	a5,a5
    106c:	07c2                	slli	a5,a5,0x10
    106e:	83c1                	srli	a5,a5,0x10
    1070:	a11e                	sh	a5,0(a0)
    1072:	8082                	ret

00001074 <Delay_Init>:
    1074:	200007b7          	lui	a5,0x20000
    1078:	2a87a783          	lw	a5,680(a5) # 200002a8 <SystemCoreClock>
    107c:	007a1737          	lui	a4,0x7a1
    1080:	20070713          	addi	a4,a4,512 # 7a1200 <_data_lma+0x79ad94>
    1084:	02e7d7b3          	divu	a5,a5,a4
    1088:	0ff7f793          	andi	a5,a5,255
    108c:	82f18b23          	sb	a5,-1994(gp) # 200002de <p_us>
    1090:	3e800713          	li	a4,1000
    1094:	02e787b3          	mul	a5,a5,a4
    1098:	82f19a23          	sh	a5,-1996(gp) # 200002dc <p_ms>
    109c:	8082                	ret

0000109e <Delay_Us>:
    109e:	e000f7b7          	lui	a5,0xe000f
    10a2:	43d8                	lw	a4,4(a5)
    10a4:	4681                	li	a3,0
    10a6:	9b79                	andi	a4,a4,-2
    10a8:	c3d8                	sw	a4,4(a5)
    10aa:	8361c703          	lbu	a4,-1994(gp) # 200002de <p_us>
    10ae:	02a70633          	mul	a2,a4,a0
    10b2:	cb90                	sw	a2,16(a5)
    10b4:	cbd4                	sw	a3,20(a5)
    10b6:	4398                	lw	a4,0(a5)
    10b8:	01076713          	ori	a4,a4,16
    10bc:	c398                	sw	a4,0(a5)
    10be:	4398                	lw	a4,0(a5)
    10c0:	02176713          	ori	a4,a4,33
    10c4:	c398                	sw	a4,0(a5)
    10c6:	43d8                	lw	a4,4(a5)
    10c8:	8b05                	andi	a4,a4,1
    10ca:	df75                	beqz	a4,10c6 <Delay_Us+0x28>
    10cc:	4398                	lw	a4,0(a5)
    10ce:	9b79                	andi	a4,a4,-2
    10d0:	c398                	sw	a4,0(a5)
    10d2:	8082                	ret

000010d4 <USART_Printf_Init>:
    10d4:	91cff2ef          	jal	t0,1f0 <__riscv_save_0>
    10d8:	842a                	mv	s0,a0
    10da:	6511                	lui	a0,0x4
    10dc:	1101                	addi	sp,sp,-32
    10de:	4585                	li	a1,1
    10e0:	0511                	addi	a0,a0,4
    10e2:	3685                	jal	c42 <RCC_APB2PeriphClockCmd>
    10e4:	20000793          	li	a5,512
    10e8:	827c                	sh	a5,4(sp)
    10ea:	40011537          	lui	a0,0x40011
    10ee:	478d                	li	a5,3
    10f0:	c43e                	sw	a5,8(sp)
    10f2:	004c                	addi	a1,sp,4
    10f4:	47e1                	li	a5,24
    10f6:	80050513          	addi	a0,a0,-2048 # 40010800 <_eusrstack+0x20008800>
    10fa:	c63e                	sw	a5,12(sp)
    10fc:	82fff0ef          	jal	ra,92a <GPIO_Init>
    1100:	c822                	sw	s0,16(sp)
    1102:	40014437          	lui	s0,0x40014
    1106:	000807b7          	lui	a5,0x80
    110a:	080c                	addi	a1,sp,16
    110c:	80040513          	addi	a0,s0,-2048 # 40013800 <_eusrstack+0x2000b800>
    1110:	cc3e                	sw	a5,24(sp)
    1112:	ca02                	sw	zero,20(sp)
    1114:	00011e23          	sh	zero,28(sp)
    1118:	3539                	jal	f26 <USART_Init>
    111a:	4585                	li	a1,1
    111c:	80040513          	addi	a0,s0,-2048
    1120:	3d51                	jal	fb4 <USART_Cmd>
    1122:	6105                	addi	sp,sp,32
    1124:	8f0ff06f          	j	214 <__riscv_restore_0>

00001128 <_write>:
    1128:	8aeff2ef          	jal	t0,1d6 <__riscv_save_4>
    112c:	400144b7          	lui	s1,0x40014
    1130:	89ae                	mv	s3,a1
    1132:	8932                	mv	s2,a2
    1134:	4401                	li	s0,0
    1136:	80048493          	addi	s1,s1,-2048 # 40013800 <_eusrstack+0x2000b800>
    113a:	01244563          	blt	s0,s2,1144 <_write+0x1c>
    113e:	854a                	mv	a0,s2
    1140:	8caff06f          	j	20a <__riscv_restore_4>
    1144:	04000593          	li	a1,64
    1148:	8526                	mv	a0,s1
    114a:	3dc1                	jal	101a <USART_GetFlagStatus>
    114c:	dd65                	beqz	a0,1144 <_write+0x1c>
    114e:	008987b3          	add	a5,s3,s0
    1152:	00078583          	lb	a1,0(a5) # 80000 <_data_lma+0x79b94>
    1156:	8526                	mv	a0,s1
    1158:	0405                	addi	s0,s0,1
    115a:	05c2                	slli	a1,a1,0x10
    115c:	81c1                	srli	a1,a1,0x10
    115e:	3d55                	jal	1012 <USART_SendData>
    1160:	bfe9                	j	113a <_write+0x12>

00001162 <_sbrk>:
    1162:	80818713          	addi	a4,gp,-2040 # 200002b0 <curbrk.5273>
    1166:	431c                	lw	a5,0(a4)
    1168:	200026b7          	lui	a3,0x20002
    116c:	b8c68693          	addi	a3,a3,-1140 # 20001b8c <_ebss>
    1170:	953e                	add	a0,a0,a5
    1172:	00d56b63          	bltu	a0,a3,1188 <_sbrk+0x26>
    1176:	200086b7          	lui	a3,0x20008
    117a:	80068693          	addi	a3,a3,-2048 # 20007800 <_heap_end>
    117e:	00a6e563          	bltu	a3,a0,1188 <_sbrk+0x26>
    1182:	c308                	sw	a0,0(a4)
    1184:	853e                	mv	a0,a5
    1186:	8082                	ret
    1188:	57fd                	li	a5,-1
    118a:	bfed                	j	1184 <_sbrk+0x22>

0000118c <MFRC522_Init>:
    118c:	864ff2ef          	jal	t0,1f0 <__riscv_save_0>
    1190:	6505                	lui	a0,0x1
    1192:	1101                	addi	sp,sp,-32
    1194:	4585                	li	a1,1
    1196:	0531                	addi	a0,a0,12
    1198:	346d                	jal	c42 <RCC_APB2PeriphClockCmd>
    119a:	40011437          	lui	s0,0x40011
    119e:	0a000793          	li	a5,160
    11a2:	807c                	sh	a5,0(sp)
    11a4:	44e1                	li	s1,24
    11a6:	478d                	li	a5,3
    11a8:	858a                	mv	a1,sp
    11aa:	80040513          	addi	a0,s0,-2048 # 40010800 <_eusrstack+0x20008800>
    11ae:	c23e                	sw	a5,4(sp)
    11b0:	c426                	sw	s1,8(sp)
    11b2:	f78ff0ef          	jal	ra,92a <GPIO_Init>
    11b6:	04000793          	li	a5,64
    11ba:	807c                	sh	a5,0(sp)
    11bc:	858a                	mv	a1,sp
    11be:	4791                	li	a5,4
    11c0:	80040513          	addi	a0,s0,-2048
    11c4:	c43e                	sw	a5,8(sp)
    11c6:	f64ff0ef          	jal	ra,92a <GPIO_Init>
    11ca:	47c1                	li	a5,16
    11cc:	4941                	li	s2,16
    11ce:	858a                	mv	a1,sp
    11d0:	80040513          	addi	a0,s0,-2048
    11d4:	807c                	sh	a5,0(sp)
    11d6:	c44a                	sw	s2,8(sp)
    11d8:	f52ff0ef          	jal	ra,92a <GPIO_Init>
    11dc:	4785                	li	a5,1
    11de:	858a                	mv	a1,sp
    11e0:	c0040513          	addi	a0,s0,-1024
    11e4:	807c                	sh	a5,0(sp)
    11e6:	c44a                	sw	s2,8(sp)
    11e8:	f42ff0ef          	jal	ra,92a <GPIO_Init>
    11ec:	010407b7          	lui	a5,0x1040
    11f0:	c63e                	sw	a5,12(sp)
    11f2:	020007b7          	lui	a5,0x2000
    11f6:	ca3e                	sw	a5,20(sp)
    11f8:	006c                	addi	a1,sp,12
    11fa:	479d                	li	a5,7
    11fc:	40013537          	lui	a0,0x40013
    1200:	86fc                	sh	a5,28(sp)
    1202:	cc26                	sw	s1,24(sp)
    1204:	c802                	sw	zero,16(sp)
    1206:	3e45                	jal	db6 <SPI_Init>
    1208:	4585                	li	a1,1
    120a:	40013537          	lui	a0,0x40013
    120e:	36dd                	jal	df4 <SPI_Cmd>
    1210:	45c1                	li	a1,16
    1212:	80040513          	addi	a0,s0,-2048
    1216:	fd4ff0ef          	jal	ra,9ea <GPIO_SetBits>
    121a:	6105                	addi	sp,sp,32
    121c:	ff9fe06f          	j	214 <__riscv_restore_0>

00001220 <Read_MFRC522>:
    1220:	fd1fe2ef          	jal	t0,1f0 <__riscv_save_0>
    1224:	84aa                	mv	s1,a0
    1226:	201000ef          	jal	ra,1c26 <TIM2_GetTick>
    122a:	842a                	mv	s0,a0
    122c:	40011537          	lui	a0,0x40011
    1230:	45c1                	li	a1,16
    1232:	80050513          	addi	a0,a0,-2048 # 40010800 <_eusrstack+0x20008800>
    1236:	fb8ff0ef          	jal	ra,9ee <GPIO_ResetBits>
    123a:	00149593          	slli	a1,s1,0x1
    123e:	07e5f593          	andi	a1,a1,126
    1242:	0805e593          	ori	a1,a1,128
    1246:	40013537          	lui	a0,0x40013
    124a:	36d1                	jal	e0e <SPI_I2S_SendData>
    124c:	3e840493          	addi	s1,s0,1000
    1250:	4589                	li	a1,2
    1252:	40013537          	lui	a0,0x40013
    1256:	36c1                	jal	e16 <SPI_I2S_GetFlagStatus>
    1258:	e901                	bnez	a0,1268 <Read_MFRC522+0x48>
    125a:	1cd000ef          	jal	ra,1c26 <TIM2_GetTick>
    125e:	fe9569e3          	bltu	a0,s1,1250 <Read_MFRC522+0x30>
    1262:	1c5000ef          	jal	ra,1c26 <TIM2_GetTick>
    1266:	4405                	li	s0,1
    1268:	3e840493          	addi	s1,s0,1000
    126c:	4585                	li	a1,1
    126e:	40013537          	lui	a0,0x40013
    1272:	3655                	jal	e16 <SPI_I2S_GetFlagStatus>
    1274:	e901                	bnez	a0,1284 <Read_MFRC522+0x64>
    1276:	1b1000ef          	jal	ra,1c26 <TIM2_GetTick>
    127a:	fe9569e3          	bltu	a0,s1,126c <Read_MFRC522+0x4c>
    127e:	1a9000ef          	jal	ra,1c26 <TIM2_GetTick>
    1282:	4405                	li	s0,1
    1284:	40013537          	lui	a0,0x40013
    1288:	3669                	jal	e12 <SPI_I2S_ReceiveData>
    128a:	4581                	li	a1,0
    128c:	40013537          	lui	a0,0x40013
    1290:	3ebd                	jal	e0e <SPI_I2S_SendData>
    1292:	3e840493          	addi	s1,s0,1000
    1296:	4589                	li	a1,2
    1298:	40013537          	lui	a0,0x40013
    129c:	3ead                	jal	e16 <SPI_I2S_GetFlagStatus>
    129e:	e901                	bnez	a0,12ae <Read_MFRC522+0x8e>
    12a0:	187000ef          	jal	ra,1c26 <TIM2_GetTick>
    12a4:	fe9569e3          	bltu	a0,s1,1296 <Read_MFRC522+0x76>
    12a8:	17f000ef          	jal	ra,1c26 <TIM2_GetTick>
    12ac:	4405                	li	s0,1
    12ae:	3e840413          	addi	s0,s0,1000
    12b2:	4585                	li	a1,1
    12b4:	40013537          	lui	a0,0x40013
    12b8:	3eb9                	jal	e16 <SPI_I2S_GetFlagStatus>
    12ba:	e519                	bnez	a0,12c8 <Read_MFRC522+0xa8>
    12bc:	16b000ef          	jal	ra,1c26 <TIM2_GetTick>
    12c0:	fe8569e3          	bltu	a0,s0,12b2 <Read_MFRC522+0x92>
    12c4:	163000ef          	jal	ra,1c26 <TIM2_GetTick>
    12c8:	40013537          	lui	a0,0x40013
    12cc:	3699                	jal	e12 <SPI_I2S_ReceiveData>
    12ce:	842a                	mv	s0,a0
    12d0:	40011537          	lui	a0,0x40011
    12d4:	45c1                	li	a1,16
    12d6:	80050513          	addi	a0,a0,-2048 # 40010800 <_eusrstack+0x20008800>
    12da:	f10ff0ef          	jal	ra,9ea <GPIO_SetBits>
    12de:	0ff47513          	andi	a0,s0,255
    12e2:	f33fe06f          	j	214 <__riscv_restore_0>

000012e6 <Write_MFRC522>:
    12e6:	f0bfe2ef          	jal	t0,1f0 <__riscv_save_0>
    12ea:	84aa                	mv	s1,a0
    12ec:	892e                	mv	s2,a1
    12ee:	139000ef          	jal	ra,1c26 <TIM2_GetTick>
    12f2:	842a                	mv	s0,a0
    12f4:	40011537          	lui	a0,0x40011
    12f8:	45c1                	li	a1,16
    12fa:	80050513          	addi	a0,a0,-2048 # 40010800 <_eusrstack+0x20008800>
    12fe:	ef0ff0ef          	jal	ra,9ee <GPIO_ResetBits>
    1302:	00149593          	slli	a1,s1,0x1
    1306:	07e5f593          	andi	a1,a1,126
    130a:	40013537          	lui	a0,0x40013
    130e:	3601                	jal	e0e <SPI_I2S_SendData>
    1310:	3e840493          	addi	s1,s0,1000
    1314:	4589                	li	a1,2
    1316:	40013537          	lui	a0,0x40013
    131a:	3cf5                	jal	e16 <SPI_I2S_GetFlagStatus>
    131c:	e901                	bnez	a0,132c <Write_MFRC522+0x46>
    131e:	109000ef          	jal	ra,1c26 <TIM2_GetTick>
    1322:	fe9569e3          	bltu	a0,s1,1314 <Write_MFRC522+0x2e>
    1326:	101000ef          	jal	ra,1c26 <TIM2_GetTick>
    132a:	4405                	li	s0,1
    132c:	3e840493          	addi	s1,s0,1000
    1330:	4585                	li	a1,1
    1332:	40013537          	lui	a0,0x40013
    1336:	34c5                	jal	e16 <SPI_I2S_GetFlagStatus>
    1338:	e901                	bnez	a0,1348 <Write_MFRC522+0x62>
    133a:	0ed000ef          	jal	ra,1c26 <TIM2_GetTick>
    133e:	fe9569e3          	bltu	a0,s1,1330 <Write_MFRC522+0x4a>
    1342:	0e5000ef          	jal	ra,1c26 <TIM2_GetTick>
    1346:	4405                	li	s0,1
    1348:	40013537          	lui	a0,0x40013
    134c:	34d9                	jal	e12 <SPI_I2S_ReceiveData>
    134e:	85ca                	mv	a1,s2
    1350:	40013537          	lui	a0,0x40013
    1354:	3c6d                	jal	e0e <SPI_I2S_SendData>
    1356:	3e840493          	addi	s1,s0,1000
    135a:	4589                	li	a1,2
    135c:	40013537          	lui	a0,0x40013
    1360:	3c5d                	jal	e16 <SPI_I2S_GetFlagStatus>
    1362:	e901                	bnez	a0,1372 <Write_MFRC522+0x8c>
    1364:	0c3000ef          	jal	ra,1c26 <TIM2_GetTick>
    1368:	fe9569e3          	bltu	a0,s1,135a <Write_MFRC522+0x74>
    136c:	0bb000ef          	jal	ra,1c26 <TIM2_GetTick>
    1370:	4405                	li	s0,1
    1372:	3e840413          	addi	s0,s0,1000
    1376:	4585                	li	a1,1
    1378:	40013537          	lui	a0,0x40013
    137c:	3c69                	jal	e16 <SPI_I2S_GetFlagStatus>
    137e:	e519                	bnez	a0,138c <Write_MFRC522+0xa6>
    1380:	0a7000ef          	jal	ra,1c26 <TIM2_GetTick>
    1384:	fe8569e3          	bltu	a0,s0,1376 <Write_MFRC522+0x90>
    1388:	09f000ef          	jal	ra,1c26 <TIM2_GetTick>
    138c:	40013537          	lui	a0,0x40013
    1390:	3449                	jal	e12 <SPI_I2S_ReceiveData>
    1392:	40011537          	lui	a0,0x40011
    1396:	45c1                	li	a1,16
    1398:	80050513          	addi	a0,a0,-2048 # 40010800 <_eusrstack+0x20008800>
    139c:	e4eff0ef          	jal	ra,9ea <GPIO_SetBits>
    13a0:	e75fe06f          	j	214 <__riscv_restore_0>

000013a4 <MFRC522_Reset>:
    13a4:	e4dfe2ef          	jal	t0,1f0 <__riscv_save_0>
    13a8:	07f000ef          	jal	ra,1c26 <TIM2_GetTick>
    13ac:	400114b7          	lui	s1,0x40011
    13b0:	4585                	li	a1,1
    13b2:	842a                	mv	s0,a0
    13b4:	c0048513          	addi	a0,s1,-1024 # 40010c00 <_eusrstack+0x20008c00>
    13b8:	e32ff0ef          	jal	ra,9ea <GPIO_SetBits>
    13bc:	4505                	li	a0,1
    13be:	31c5                	jal	109e <Delay_Us>
    13c0:	4585                	li	a1,1
    13c2:	c0048513          	addi	a0,s1,-1024
    13c6:	e28ff0ef          	jal	ra,9ee <GPIO_ResetBits>
    13ca:	4505                	li	a0,1
    13cc:	39c9                	jal	109e <Delay_Us>
    13ce:	4585                	li	a1,1
    13d0:	c0048513          	addi	a0,s1,-1024
    13d4:	e16ff0ef          	jal	ra,9ea <GPIO_SetBits>
    13d8:	4505                	li	a0,1
    13da:	31d1                	jal	109e <Delay_Us>
    13dc:	45bd                	li	a1,15
    13de:	4505                	li	a0,1
    13e0:	3719                	jal	12e6 <Write_MFRC522>
    13e2:	3e840413          	addi	s0,s0,1000
    13e6:	4505                	li	a0,1
    13e8:	3d25                	jal	1220 <Read_MFRC522>
    13ea:	8941                	andi	a0,a0,16
    13ec:	c519                	beqz	a0,13fa <MFRC522_Reset+0x56>
    13ee:	039000ef          	jal	ra,1c26 <TIM2_GetTick>
    13f2:	fe856ae3          	bltu	a0,s0,13e6 <MFRC522_Reset+0x42>
    13f6:	031000ef          	jal	ra,1c26 <TIM2_GetTick>
    13fa:	4505                	li	a0,1
    13fc:	314d                	jal	109e <Delay_Us>
    13fe:	03d00593          	li	a1,61
    1402:	4545                	li	a0,17
    1404:	35cd                	jal	12e6 <Write_MFRC522>
    1406:	45f9                	li	a1,30
    1408:	02d00513          	li	a0,45
    140c:	3de9                	jal	12e6 <Write_MFRC522>
    140e:	4581                	li	a1,0
    1410:	02c00513          	li	a0,44
    1414:	3dc9                	jal	12e6 <Write_MFRC522>
    1416:	08d00593          	li	a1,141
    141a:	02a00513          	li	a0,42
    141e:	35e1                	jal	12e6 <Write_MFRC522>
    1420:	03e00593          	li	a1,62
    1424:	02b00513          	li	a0,43
    1428:	3d7d                	jal	12e6 <Write_MFRC522>
    142a:	04000593          	li	a1,64
    142e:	4555                	li	a0,21
    1430:	3d5d                	jal	12e6 <Write_MFRC522>
    1432:	02600513          	li	a0,38
    1436:	ddffe06f          	j	214 <__riscv_restore_0>

0000143a <SetBitMask>:
    143a:	db7fe2ef          	jal	t0,1f0 <__riscv_save_0>
    143e:	1141                	addi	sp,sp,-16
    1440:	842a                	mv	s0,a0
    1442:	c62e                	sw	a1,12(sp)
    1444:	3bf1                	jal	1220 <Read_MFRC522>
    1446:	45b2                	lw	a1,12(sp)
    1448:	8dc9                	or	a1,a1,a0
    144a:	0ff5f593          	andi	a1,a1,255
    144e:	8522                	mv	a0,s0
    1450:	3d59                	jal	12e6 <Write_MFRC522>
    1452:	0141                	addi	sp,sp,16
    1454:	dc1fe06f          	j	214 <__riscv_restore_0>

00001458 <ClearBitMask>:
    1458:	d99fe2ef          	jal	t0,1f0 <__riscv_save_0>
    145c:	1141                	addi	sp,sp,-16
    145e:	842a                	mv	s0,a0
    1460:	c62e                	sw	a1,12(sp)
    1462:	3b7d                	jal	1220 <Read_MFRC522>
    1464:	45b2                	lw	a1,12(sp)
    1466:	fff5c593          	not	a1,a1
    146a:	8de9                	and	a1,a1,a0
    146c:	0ff5f593          	andi	a1,a1,255
    1470:	8522                	mv	a0,s0
    1472:	3d95                	jal	12e6 <Write_MFRC522>
    1474:	0141                	addi	sp,sp,16
    1476:	d9ffe06f          	j	214 <__riscv_restore_0>

0000147a <MFRC522_ToCard>:
    147a:	d4ffe2ef          	jal	t0,1c8 <__riscv_save_10>
    147e:	47b1                	li	a5,12
    1480:	84aa                	mv	s1,a0
    1482:	8bae                	mv	s7,a1
    1484:	8b32                	mv	s6,a2
    1486:	89b6                	mv	s3,a3
    1488:	8a3a                	mv	s4,a4
    148a:	0ef50163          	beq	a0,a5,156c <MFRC522_ToCard+0xf2>
    148e:	47b9                	li	a5,14
    1490:	0ef50363          	beq	a0,a5,1576 <MFRC522_ToCard+0xfc>
    1494:	4901                	li	s2,0
    1496:	4401                	li	s0,0
    1498:	08046593          	ori	a1,s0,128
    149c:	4509                	li	a0,2
    149e:	35a1                	jal	12e6 <Write_MFRC522>
    14a0:	08000593          	li	a1,128
    14a4:	4511                	li	a0,4
    14a6:	3f4d                	jal	1458 <ClearBitMask>
    14a8:	4581                	li	a1,0
    14aa:	4505                	li	a0,1
    14ac:	3d2d                	jal	12e6 <Write_MFRC522>
    14ae:	08000593          	li	a1,128
    14b2:	4529                	li	a0,10
    14b4:	3759                	jal	143a <SetBitMask>
    14b6:	4a81                	li	s5,0
    14b8:	0d6ae263          	bltu	s5,s6,157c <MFRC522_ToCard+0x102>
    14bc:	85a6                	mv	a1,s1
    14be:	4505                	li	a0,1
    14c0:	351d                	jal	12e6 <Write_MFRC522>
    14c2:	47b1                	li	a5,12
    14c4:	00f49663          	bne	s1,a5,14d0 <MFRC522_ToCard+0x56>
    14c8:	08000593          	li	a1,128
    14cc:	4535                	li	a0,13
    14ce:	37b5                	jal	143a <SetBitMask>
    14d0:	4511                	li	a0,4
    14d2:	33b9                	jal	1220 <Read_MFRC522>
    14d4:	5dc00a93          	li	s5,1500
    14d8:	00196913          	ori	s2,s2,1
    14dc:	4511                	li	a0,4
    14de:	3389                	jal	1220 <Read_MFRC522>
    14e0:	1afd                	addi	s5,s5,-1
    14e2:	8b2a                	mv	s6,a0
    14e4:	000a8563          	beqz	s5,14ee <MFRC522_ToCard+0x74>
    14e8:	012577b3          	and	a5,a0,s2
    14ec:	dbe5                	beqz	a5,14dc <MFRC522_ToCard+0x62>
    14ee:	08000593          	li	a1,128
    14f2:	4535                	li	a0,13
    14f4:	3795                	jal	1458 <ClearBitMask>
    14f6:	080a8a63          	beqz	s5,158a <MFRC522_ToCard+0x110>
    14fa:	4519                	li	a0,6
    14fc:	3315                	jal	1220 <Read_MFRC522>
    14fe:	896d                	andi	a0,a0,27
    1500:	e549                	bnez	a0,158a <MFRC522_ToCard+0x110>
    1502:	01647433          	and	s0,s0,s6
    1506:	8805                	andi	s0,s0,1
    1508:	02600913          	li	s2,38
    150c:	c019                	beqz	s0,1512 <MFRC522_ToCard+0x98>
    150e:	fcc00913          	li	s2,-52
    1512:	47b1                	li	a5,12
    1514:	04f49263          	bne	s1,a5,1558 <MFRC522_ToCard+0xde>
    1518:	4529                	li	a0,10
    151a:	3319                	jal	1220 <Read_MFRC522>
    151c:	84aa                	mv	s1,a0
    151e:	4531                	li	a0,12
    1520:	3301                	jal	1220 <Read_MFRC522>
    1522:	891d                	andi	a0,a0,7
    1524:	00349793          	slli	a5,s1,0x3
    1528:	c509                	beqz	a0,1532 <MFRC522_ToCard+0xb8>
    152a:	fff48793          	addi	a5,s1,-1
    152e:	078e                	slli	a5,a5,0x3
    1530:	97aa                	add	a5,a5,a0
    1532:	00fa2023          	sw	a5,0(s4)
    1536:	4405                	li	s0,1
    1538:	c499                	beqz	s1,1546 <MFRC522_ToCard+0xcc>
    153a:	47c9                	li	a5,18
    153c:	0ff4f413          	andi	s0,s1,255
    1540:	0097f363          	bgeu	a5,s1,1546 <MFRC522_ToCard+0xcc>
    1544:	4449                	li	s0,18
    1546:	4481                	li	s1,0
    1548:	4525                	li	a0,9
    154a:	39d9                	jal	1220 <Read_MFRC522>
    154c:	009987b3          	add	a5,s3,s1
    1550:	a388                	sb	a0,0(a5)
    1552:	0485                	addi	s1,s1,1
    1554:	fe84eae3          	bltu	s1,s0,1548 <MFRC522_ToCard+0xce>
    1558:	08000593          	li	a1,128
    155c:	4531                	li	a0,12
    155e:	3df1                	jal	143a <SetBitMask>
    1560:	4581                	li	a1,0
    1562:	4505                	li	a0,1
    1564:	3349                	jal	12e6 <Write_MFRC522>
    1566:	854a                	mv	a0,s2
    1568:	c99fe06f          	j	200 <__riscv_restore_10>
    156c:	03000913          	li	s2,48
    1570:	07700413          	li	s0,119
    1574:	b715                	j	1498 <MFRC522_ToCard+0x1e>
    1576:	4941                	li	s2,16
    1578:	4449                	li	s0,18
    157a:	bf39                	j	1498 <MFRC522_ToCard+0x1e>
    157c:	015b87b3          	add	a5,s7,s5
    1580:	238c                	lbu	a1,0(a5)
    1582:	4525                	li	a0,9
    1584:	0a85                	addi	s5,s5,1
    1586:	3385                	jal	12e6 <Write_MFRC522>
    1588:	bf05                	j	14b8 <MFRC522_ToCard+0x3e>
    158a:	fbb00913          	li	s2,-69
    158e:	b7e9                	j	1558 <MFRC522_ToCard+0xde>

00001590 <MFRC522_AntennaOn>:
    1590:	c61fe2ef          	jal	t0,1f0 <__riscv_save_0>
    1594:	4551                	li	a0,20
    1596:	3169                	jal	1220 <Read_MFRC522>
    1598:	890d                	andi	a0,a0,3
    159a:	e501                	bnez	a0,15a2 <MFRC522_AntennaOn+0x12>
    159c:	458d                	li	a1,3
    159e:	4551                	li	a0,20
    15a0:	3d69                	jal	143a <SetBitMask>
    15a2:	c73fe06f          	j	214 <__riscv_restore_0>

000015a6 <MFRC522_AntennaOff>:
    15a6:	c4bfe2ef          	jal	t0,1f0 <__riscv_save_0>
    15aa:	458d                	li	a1,3
    15ac:	4551                	li	a0,20
    15ae:	356d                	jal	1458 <ClearBitMask>
    15b0:	c65fe06f          	j	214 <__riscv_restore_0>

000015b4 <CalulateCRC>:
    15b4:	c3dfe2ef          	jal	t0,1f0 <__riscv_save_0>
    15b8:	842a                	mv	s0,a0
    15ba:	84ae                	mv	s1,a1
    15bc:	4515                	li	a0,5
    15be:	4591                	li	a1,4
    15c0:	8932                	mv	s2,a2
    15c2:	3d59                	jal	1458 <ClearBitMask>
    15c4:	4581                	li	a1,0
    15c6:	4505                	li	a0,1
    15c8:	3b39                	jal	12e6 <Write_MFRC522>
    15ca:	08000593          	li	a1,128
    15ce:	4529                	li	a0,10
    15d0:	35ad                	jal	143a <SetBitMask>
    15d2:	94a2                	add	s1,s1,s0
    15d4:	02941b63          	bne	s0,s1,160a <CalulateCRC+0x56>
    15d8:	458d                	li	a1,3
    15da:	4505                	li	a0,1
    15dc:	3329                	jal	12e6 <Write_MFRC522>
    15de:	0ff00413          	li	s0,255
    15e2:	147d                	addi	s0,s0,-1
    15e4:	4515                	li	a0,5
    15e6:	0ff47413          	andi	s0,s0,255
    15ea:	391d                	jal	1220 <Read_MFRC522>
    15ec:	c019                	beqz	s0,15f2 <CalulateCRC+0x3e>
    15ee:	8911                	andi	a0,a0,4
    15f0:	d96d                	beqz	a0,15e2 <CalulateCRC+0x2e>
    15f2:	02200513          	li	a0,34
    15f6:	312d                	jal	1220 <Read_MFRC522>
    15f8:	00a90023          	sb	a0,0(s2)
    15fc:	02100513          	li	a0,33
    1600:	3105                	jal	1220 <Read_MFRC522>
    1602:	00a900a3          	sb	a0,1(s2)
    1606:	c0ffe06f          	j	214 <__riscv_restore_0>
    160a:	200c                	lbu	a1,0(s0)
    160c:	4525                	li	a0,9
    160e:	0405                	addi	s0,s0,1
    1610:	39d9                	jal	12e6 <Write_MFRC522>
    1612:	b7c9                	j	15d4 <CalulateCRC+0x20>

00001614 <MFRC522_Halt>:
    1614:	bddfe2ef          	jal	t0,1f0 <__riscv_save_0>
    1618:	1101                	addi	sp,sp,-32
    161a:	05000793          	li	a5,80
    161e:	00e10613          	addi	a2,sp,14
    1622:	0068                	addi	a0,sp,12
    1624:	4589                	li	a1,2
    1626:	867c                	sh	a5,12(sp)
    1628:	3771                	jal	15b4 <CalulateCRC>
    162a:	0074                	addi	a3,sp,12
    162c:	0038                	addi	a4,sp,8
    162e:	4611                	li	a2,4
    1630:	85b6                	mv	a1,a3
    1632:	4531                	li	a0,12
    1634:	3599                	jal	147a <MFRC522_ToCard>
    1636:	02600513          	li	a0,38
    163a:	6105                	addi	sp,sp,32
    163c:	bd9fe06f          	j	214 <__riscv_restore_0>

00001640 <MFRC522_Request>:
    1640:	bb1fe2ef          	jal	t0,1f0 <__riscv_save_0>
    1644:	1101                	addi	sp,sp,-32
    1646:	84aa                	mv	s1,a0
    1648:	842e                	mv	s0,a1
    164a:	4521                	li	a0,8
    164c:	45a1                	li	a1,8
    164e:	3529                	jal	1458 <ClearBitMask>
    1650:	459d                	li	a1,7
    1652:	4535                	li	a0,13
    1654:	3949                	jal	12e6 <Write_MFRC522>
    1656:	458d                	li	a1,3
    1658:	4551                	li	a0,20
    165a:	33c5                	jal	143a <SetBitMask>
    165c:	0074                	addi	a3,sp,12
    165e:	0038                	addi	a4,sp,8
    1660:	4605                	li	a2,1
    1662:	85b6                	mv	a1,a3
    1664:	4531                	li	a0,12
    1666:	8644                	sb	s1,12(sp)
    1668:	3d09                	jal	147a <MFRC522_ToCard>
    166a:	02600793          	li	a5,38
    166e:	00f51d63          	bne	a0,a5,1688 <MFRC522_Request+0x48>
    1672:	4722                	lw	a4,8(sp)
    1674:	47c1                	li	a5,16
    1676:	00f71963          	bne	a4,a5,1688 <MFRC522_Request+0x48>
    167a:	861c                	lbu	a5,12(sp)
    167c:	a01c                	sb	a5,0(s0)
    167e:	869c                	lbu	a5,13(sp)
    1680:	b01c                	sb	a5,1(s0)
    1682:	6105                	addi	sp,sp,32
    1684:	b91fe06f          	j	214 <__riscv_restore_0>
    1688:	fbb00513          	li	a0,-69
    168c:	bfdd                	j	1682 <MFRC522_Request+0x42>

0000168e <MFRC522_Anticoll>:
    168e:	b63fe2ef          	jal	t0,1f0 <__riscv_save_0>
    1692:	1101                	addi	sp,sp,-32
    1694:	45a1                	li	a1,8
    1696:	84aa                	mv	s1,a0
    1698:	4521                	li	a0,8
    169a:	3b7d                	jal	1458 <ClearBitMask>
    169c:	4581                	li	a1,0
    169e:	4535                	li	a0,13
    16a0:	3199                	jal	12e6 <Write_MFRC522>
    16a2:	08000593          	li	a1,128
    16a6:	4539                	li	a0,14
    16a8:	3b45                	jal	1458 <ClearBitMask>
    16aa:	0074                	addi	a3,sp,12
    16ac:	6789                	lui	a5,0x2
    16ae:	09378793          	addi	a5,a5,147 # 2093 <USART3_DMAConfig+0x10f>
    16b2:	0038                	addi	a4,sp,8
    16b4:	4609                	li	a2,2
    16b6:	85b6                	mv	a1,a3
    16b8:	4531                	li	a0,12
    16ba:	867c                	sh	a5,12(sp)
    16bc:	3b7d                	jal	147a <MFRC522_ToCard>
    16be:	02600793          	li	a5,38
    16c2:	842a                	mv	s0,a0
    16c4:	02f51563          	bne	a0,a5,16ee <MFRC522_Anticoll+0x60>
    16c8:	4781                	li	a5,0
    16ca:	4701                	li	a4,0
    16cc:	4611                	li	a2,4
    16ce:	0074                	addi	a3,sp,12
    16d0:	96be                	add	a3,a3,a5
    16d2:	2294                	lbu	a3,0(a3)
    16d4:	00f485b3          	add	a1,s1,a5
    16d8:	0785                	addi	a5,a5,1
    16da:	a194                	sb	a3,0(a1)
    16dc:	8f35                	xor	a4,a4,a3
    16de:	fec798e3          	bne	a5,a2,16ce <MFRC522_Anticoll+0x40>
    16e2:	01014783          	lbu	a5,16(sp)
    16e6:	00e78463          	beq	a5,a4,16ee <MFRC522_Anticoll+0x60>
    16ea:	fbb00413          	li	s0,-69
    16ee:	08000593          	li	a1,128
    16f2:	4539                	li	a0,14
    16f4:	3399                	jal	143a <SetBitMask>
    16f6:	8522                	mv	a0,s0
    16f8:	6105                	addi	sp,sp,32
    16fa:	b1bfe06f          	j	214 <__riscv_restore_0>

000016fe <MFRC522_find_card>:
    16fe:	ad9fe2ef          	jal	t0,1d6 <__riscv_save_4>
    1702:	892a                	mv	s2,a0
    1704:	87418493          	addi	s1,gp,-1932 # 2000031c <card_arr>
    1708:	4401                	li	s0,0
    170a:	01450a13          	addi	s4,a0,20
    170e:	04000993          	li	s3,64
    1712:	85a6                	mv	a1,s1
    1714:	854a                	mv	a0,s2
    1716:	bb3fe0ef          	jal	ra,2c8 <strcmp>
    171a:	ed01                	bnez	a0,1732 <MFRC522_find_card+0x34>
    171c:	01448593          	addi	a1,s1,20
    1720:	8552                	mv	a0,s4
    1722:	ba7fe0ef          	jal	ra,2c8 <strcmp>
    1726:	e511                	bnez	a0,1732 <MFRC522_find_card+0x34>
    1728:	01841513          	slli	a0,s0,0x18
    172c:	8561                	srai	a0,a0,0x18
    172e:	addfe06f          	j	20a <__riscv_restore_4>
    1732:	0405                	addi	s0,s0,1
    1734:	04dd                	addi	s1,s1,23
    1736:	fd341ee3          	bne	s0,s3,1712 <MFRC522_find_card+0x14>
    173a:	557d                	li	a0,-1
    173c:	bfcd                	j	172e <MFRC522_find_card+0x30>

0000173e <MFRC522_add_card>:
    173e:	a99fe2ef          	jal	t0,1d6 <__riscv_save_4>
    1742:	87418793          	addi	a5,gp,-1932 # 2000031c <card_arr>
    1746:	4481                	li	s1,0
    1748:	87418413          	addi	s0,gp,-1932 # 2000031c <card_arr>
    174c:	04000713          	li	a4,64
    1750:	2bf4                	lbu	a3,22(a5)
    1752:	ca81                	beqz	a3,1762 <MFRC522_add_card+0x24>
    1754:	0485                	addi	s1,s1,1
    1756:	07dd                	addi	a5,a5,23
    1758:	fee49ce3          	bne	s1,a4,1750 <MFRC522_add_card+0x12>
    175c:	557d                	li	a0,-1
    175e:	aadfe06f          	j	20a <__riscv_restore_4>
    1762:	495d                	li	s2,23
    1764:	03248933          	mul	s2,s1,s2
    1768:	89aa                	mv	s3,a0
    176a:	4651                	li	a2,20
    176c:	4581                	li	a1,0
    176e:	012407b3          	add	a5,s0,s2
    1772:	853e                	mv	a0,a5
    1774:	0951                	addi	s2,s2,20
    1776:	aabfe0ef          	jal	ra,220 <memset>
    177a:	944a                	add	s0,s0,s2
    177c:	00040023          	sb	zero,0(s0)
    1780:	000400a3          	sb	zero,1(s0)
    1784:	4651                	li	a2,20
    1786:	85ce                	mv	a1,s3
    1788:	282010ef          	jal	ra,2a0a <memcpy>
    178c:	0149c703          	lbu	a4,20(s3)
    1790:	a018                	sb	a4,0(s0)
    1792:	0159c703          	lbu	a4,21(s3)
    1796:	b018                	sb	a4,1(s0)
    1798:	4705                	li	a4,1
    179a:	a978                	sb	a4,22(a0)
    179c:	01849513          	slli	a0,s1,0x18
    17a0:	8561                	srai	a0,a0,0x18
    17a2:	bf75                	j	175e <MFRC522_add_card+0x20>

000017a4 <MFRC522_Proc>:
    17a4:	a4dfe2ef          	jal	t0,1f0 <__riscv_save_0>
    17a8:	1101                	addi	sp,sp,-32
    17aa:	465d                	li	a2,23
    17ac:	4581                	li	a1,0
    17ae:	0028                	addi	a0,sp,8
    17b0:	a71fe0ef          	jal	ra,220 <memset>
    17b4:	086c                	addi	a1,sp,28
    17b6:	05200513          	li	a0,82
    17ba:	3559                	jal	1640 <MFRC522_Request>
    17bc:	02600793          	li	a5,38
    17c0:	00f50863          	beq	a0,a5,17d0 <MFRC522_Proc+0x2c>
    17c4:	36c5                	jal	13a4 <MFRC522_Reset>
    17c6:	33c5                	jal	15a6 <MFRC522_AntennaOff>
    17c8:	33e1                	jal	1590 <MFRC522_AntennaOn>
    17ca:	6105                	addi	sp,sp,32
    17cc:	a49fe06f          	j	214 <__riscv_restore_0>
    17d0:	842a                	mv	s0,a0
    17d2:	0028                	addi	a0,sp,8
    17d4:	3d6d                	jal	168e <MFRC522_Anticoll>
    17d6:	fe851ae3          	bne	a0,s0,17ca <MFRC522_Proc+0x26>
    17da:	0028                	addi	a0,sp,8
    17dc:	370d                	jal	16fe <MFRC522_find_card>
    17de:	57fd                	li	a5,-1
    17e0:	00f51c63          	bne	a0,a5,17f8 <MFRC522_Proc+0x54>
    17e4:	83718793          	addi	a5,gp,-1993 # 200002df <MFRC522_flag>
    17e8:	2398                	lbu	a4,0(a5)
    17ea:	00177693          	andi	a3,a4,1
    17ee:	c689                	beqz	a3,17f8 <MFRC522_Proc+0x54>
    17f0:	9b79                	andi	a4,a4,-2
    17f2:	0028                	addi	a0,sp,8
    17f4:	a398                	sb	a4,0(a5)
    17f6:	37a1                	jal	173e <MFRC522_add_card>
    17f8:	3d31                	jal	1614 <MFRC522_Halt>
    17fa:	bfc1                	j	17ca <MFRC522_Proc+0x26>

000017fc <RTC_Init>:
    17fc:	9f5fe2ef          	jal	t0,1f0 <__riscv_save_0>
    1800:	4585                	li	a1,1
    1802:	842a                	mv	s0,a0
    1804:	18000537          	lui	a0,0x18000
    1808:	c58ff0ef          	jal	ra,c60 <RCC_APB1PeriphClockCmd>
    180c:	4505                	li	a0,1
    180e:	a46ff0ef          	jal	ra,a54 <PWR_BackupAccessCmd>
    1812:	4505                	li	a0,1
    1814:	a56ff0ef          	jal	ra,a6a <RCC_LSICmd>
    1818:	06100513          	li	a0,97
    181c:	c62ff0ef          	jal	ra,c7e <RCC_GetFlagStatus>
    1820:	dd65                	beqz	a0,1818 <RTC_Init+0x1c>
    1822:	20000513          	li	a0,512
    1826:	a58ff0ef          	jal	ra,a7e <RCC_RTCCLKConfig>
    182a:	4505                	li	a0,1
    182c:	a5eff0ef          	jal	ra,a8a <RCC_RTCCLKCmd>
    1830:	c7cff0ef          	jal	ra,cac <RTC_EnterConfigMode>
    1834:	8522                	mv	a0,s0
    1836:	d22ff0ef          	jal	ra,d58 <RTC_SetPrescaler>
    183a:	d48ff0ef          	jal	ra,d82 <RTC_WaitForLastTask>
    183e:	c80ff0ef          	jal	ra,cbe <RTC_ExitConfigMode>
    1842:	d50ff0ef          	jal	ra,d92 <RTC_WaitForSynchro>
    1846:	e3418793          	addi	a5,gp,-460 # 200008dc <rtc_time>
    184a:	07d00713          	li	a4,125
    184e:	cbd8                	sw	a4,20(a5)
    1850:	4711                	li	a4,4
    1852:	cb98                	sw	a4,16(a5)
    1854:	c7d8                	sw	a4,12(a5)
    1856:	474d                	li	a4,19
    1858:	c798                	sw	a4,8(a5)
    185a:	03b00713          	li	a4,59
    185e:	c3d8                	sw	a4,4(a5)
    1860:	c398                	sw	a4,0(a5)
    1862:	4501                	li	a0,0
    1864:	9b1fe06f          	j	214 <__riscv_restore_0>

00001868 <RTC_SetTime>:
    1868:	4958                	lw	a4,20(a0)
    186a:	04500793          	li	a5,69
    186e:	00e7c863          	blt	a5,a4,187e <RTC_SetTime+0x16>
    1872:	4505                	li	a0,1
    1874:	8082                	ret
    1876:	4505                	li	a0,1
    1878:	6121                	addi	sp,sp,64
    187a:	99bfe06f          	j	214 <__riscv_restore_0>
    187e:	4918                	lw	a4,16(a0)
    1880:	47ad                	li	a5,11
    1882:	fee7c8e3          	blt	a5,a4,1872 <RTC_SetTime+0xa>
    1886:	455c                	lw	a5,12(a0)
    1888:	fef055e3          	blez	a5,1872 <RTC_SetTime+0xa>
    188c:	4518                	lw	a4,8(a0)
    188e:	47dd                	li	a5,23
    1890:	fee7c1e3          	blt	a5,a4,1872 <RTC_SetTime+0xa>
    1894:	4158                	lw	a4,4(a0)
    1896:	03b00793          	li	a5,59
    189a:	fce7cce3          	blt	a5,a4,1872 <RTC_SetTime+0xa>
    189e:	4118                	lw	a4,0(a0)
    18a0:	fce7c9e3          	blt	a5,a4,1872 <RTC_SetTime+0xa>
    18a4:	94dfe2ef          	jal	t0,1f0 <__riscv_save_0>
    18a8:	7139                	addi	sp,sp,-64
    18aa:	85aa                	mv	a1,a0
    18ac:	842a                	mv	s0,a0
    18ae:	02400613          	li	a2,36
    18b2:	0868                	addi	a0,sp,28
    18b4:	156010ef          	jal	ra,2a0a <memcpy>
    18b8:	0868                	addi	a0,sp,28
    18ba:	3c8010ef          	jal	ra,2c82 <mktime>
    18be:	5722                	lw	a4,40(sp)
    18c0:	445c                	lw	a5,12(s0)
    18c2:	faf71ae3          	bne	a4,a5,1876 <RTC_SetTime+0xe>
    18c6:	5732                	lw	a4,44(sp)
    18c8:	481c                	lw	a5,16(s0)
    18ca:	faf716e3          	bne	a4,a5,1876 <RTC_SetTime+0xe>
    18ce:	5742                	lw	a4,48(sp)
    18d0:	485c                	lw	a5,20(s0)
    18d2:	faf712e3          	bne	a4,a5,1876 <RTC_SetTime+0xe>
    18d6:	c62a                	sw	a0,12(sp)
    18d8:	bd4ff0ef          	jal	ra,cac <RTC_EnterConfigMode>
    18dc:	4532                	lw	a0,12(sp)
    18de:	c52ff0ef          	jal	ra,d30 <RTC_SetCounter>
    18e2:	ca0ff0ef          	jal	ra,d82 <RTC_WaitForLastTask>
    18e6:	bd8ff0ef          	jal	ra,cbe <RTC_ExitConfigMode>
    18ea:	4501                	li	a0,0
    18ec:	b771                	j	1878 <RTC_SetTime+0x10>

000018ee <RTC_GetTime>:
    18ee:	c905                	beqz	a0,191e <RTC_GetTime+0x30>
    18f0:	901fe2ef          	jal	t0,1f0 <__riscv_save_0>
    18f4:	1141                	addi	sp,sp,-16
    18f6:	842a                	mv	s0,a0
    18f8:	bdeff0ef          	jal	ra,cd6 <RTC_GetCounter>
    18fc:	c42a                	sw	a0,8(sp)
    18fe:	0028                	addi	a0,sp,8
    1900:	c602                	sw	zero,12(sp)
    1902:	72f000ef          	jal	ra,2830 <gmtime>
    1906:	85aa                	mv	a1,a0
    1908:	4505                	li	a0,1
    190a:	c599                	beqz	a1,1918 <RTC_GetTime+0x2a>
    190c:	02400613          	li	a2,36
    1910:	8522                	mv	a0,s0
    1912:	0f8010ef          	jal	ra,2a0a <memcpy>
    1916:	4501                	li	a0,0
    1918:	0141                	addi	sp,sp,16
    191a:	8fbfe06f          	j	214 <__riscv_restore_0>
    191e:	4505                	li	a0,1
    1920:	8082                	ret

00001922 <RTC_proc>:
    1922:	8cffe2ef          	jal	t0,1f0 <__riscv_save_0>
    1926:	e3418513          	addi	a0,gp,-460 # 200008dc <rtc_time>
    192a:	37d1                	jal	18ee <RTC_GetTime>
    192c:	e3418513          	addi	a0,gp,-460 # 200008dc <rtc_time>
    1930:	352010ef          	jal	ra,2c82 <mktime>
    1934:	82a1ac23          	sw	a0,-1992(gp) # 200002e0 <time_count>
    1938:	82b1ae23          	sw	a1,-1988(gp) # 200002e4 <time_count+0x4>
    193c:	8d9fe06f          	j	214 <__riscv_restore_0>

00001940 <DMA1_Channel2_IRQHandler>:
    1940:	1141                	addi	sp,sp,-16
    1942:	02000513          	li	a0,32
    1946:	c622                	sw	s0,12(sp)
    1948:	fd3fe0ef          	jal	ra,91a <DMA_GetITStatus>
    194c:	c505                	beqz	a0,1974 <DMA1_Channel2_IRQHandler+0x34>
    194e:	02000513          	li	a0,32
    1952:	fd1fe0ef          	jal	ra,922 <DMA_ClearITPendingBit>
    1956:	20000437          	lui	s0,0x20000
    195a:	40020537          	lui	a0,0x40020
    195e:	4785                	li	a5,1
    1960:	02040413          	addi	s0,s0,32 # 20000020 <spi3_dma>
    1964:	4581                	li	a1,0
    1966:	0571                	addi	a0,a0,28
    1968:	a01c                	sb	a5,0(s0)
    196a:	f37fe0ef          	jal	ra,8a0 <DMA_Cmd>
    196e:	481c                	lw	a5,16(s0)
    1970:	c391                	beqz	a5,1974 <DMA1_Channel2_IRQHandler+0x34>
    1972:	9782                	jalr	a5
    1974:	4432                	lw	s0,12(sp)
    1976:	0141                	addi	sp,sp,16
    1978:	30200073          	mret

0000197c <DMA1_Channel1_IRQHandler>:
    197c:	4509                	li	a0,2
    197e:	f9dfe0ef          	jal	ra,91a <DMA_GetITStatus>
    1982:	c105                	beqz	a0,19a2 <DMA1_Channel1_IRQHandler+0x26>
    1984:	4509                	li	a0,2
    1986:	f9dfe0ef          	jal	ra,922 <DMA_ClearITPendingBit>
    198a:	200007b7          	lui	a5,0x20000
    198e:	40020537          	lui	a0,0x40020
    1992:	02078793          	addi	a5,a5,32 # 20000020 <spi3_dma>
    1996:	4705                	li	a4,1
    1998:	4581                	li	a1,0
    199a:	0521                	addi	a0,a0,8
    199c:	b398                	sb	a4,1(a5)
    199e:	f03fe0ef          	jal	ra,8a0 <DMA_Cmd>
    19a2:	30200073          	mret

000019a6 <as608_proc>:
    19a6:	8401d703          	lhu	a4,-1984(gp) # 200002e8 <as608_flag>
    19aa:	84018793          	addi	a5,gp,-1984 # 200002e8 <as608_flag>
    19ae:	00177693          	andi	a3,a4,1
    19b2:	c299                	beqz	a3,19b8 <as608_proc+0x12>
    19b4:	9b79                	andi	a4,a4,-2
    19b6:	a39a                	sh	a4,0(a5)
    19b8:	239a                	lhu	a4,0(a5)
    19ba:	00277693          	andi	a3,a4,2
    19be:	c299                	beqz	a3,19c4 <as608_proc+0x1e>
    19c0:	9b75                	andi	a4,a4,-3
    19c2:	a39a                	sh	a4,0(a5)
    19c4:	239a                	lhu	a4,0(a5)
    19c6:	00477693          	andi	a3,a4,4
    19ca:	c299                	beqz	a3,19d0 <as608_proc+0x2a>
    19cc:	9b6d                	andi	a4,a4,-5
    19ce:	a39a                	sh	a4,0(a5)
    19d0:	239a                	lhu	a4,0(a5)
    19d2:	00877693          	andi	a3,a4,8
    19d6:	c299                	beqz	a3,19dc <as608_proc+0x36>
    19d8:	9b5d                	andi	a4,a4,-9
    19da:	a39a                	sh	a4,0(a5)
    19dc:	239a                	lhu	a4,0(a5)
    19de:	01077693          	andi	a3,a4,16
    19e2:	c299                	beqz	a3,19e8 <as608_proc+0x42>
    19e4:	9b3d                	andi	a4,a4,-17
    19e6:	a39a                	sh	a4,0(a5)
    19e8:	239a                	lhu	a4,0(a5)
    19ea:	02077693          	andi	a3,a4,32
    19ee:	c681                	beqz	a3,19f6 <as608_proc+0x50>
    19f0:	fdf77713          	andi	a4,a4,-33
    19f4:	a39a                	sh	a4,0(a5)
    19f6:	239a                	lhu	a4,0(a5)
    19f8:	20077693          	andi	a3,a4,512
    19fc:	c681                	beqz	a3,1a04 <as608_proc+0x5e>
    19fe:	dff77713          	andi	a4,a4,-513
    1a02:	a39a                	sh	a4,0(a5)
    1a04:	239a                	lhu	a4,0(a5)
    1a06:	04077693          	andi	a3,a4,64
    1a0a:	c681                	beqz	a3,1a12 <as608_proc+0x6c>
    1a0c:	fbf77713          	andi	a4,a4,-65
    1a10:	a39a                	sh	a4,0(a5)
    1a12:	239a                	lhu	a4,0(a5)
    1a14:	40077693          	andi	a3,a4,1024
    1a18:	c681                	beqz	a3,1a20 <as608_proc+0x7a>
    1a1a:	bff77713          	andi	a4,a4,-1025
    1a1e:	a39a                	sh	a4,0(a5)
    1a20:	239a                	lhu	a4,0(a5)
    1a22:	08077693          	andi	a3,a4,128
    1a26:	c681                	beqz	a3,1a2e <as608_proc+0x88>
    1a28:	f7f77713          	andi	a4,a4,-129
    1a2c:	a39a                	sh	a4,0(a5)
    1a2e:	239a                	lhu	a4,0(a5)
    1a30:	10077693          	andi	a3,a4,256
    1a34:	c681                	beqz	a3,1a3c <as608_proc+0x96>
    1a36:	eff77713          	andi	a4,a4,-257
    1a3a:	a39a                	sh	a4,0(a5)
    1a3c:	239a                	lhu	a4,0(a5)
    1a3e:	01071693          	slli	a3,a4,0x10
    1a42:	86c1                	srai	a3,a3,0x10
    1a44:	0006d563          	bgez	a3,1a4e <as608_proc+0xa8>
    1a48:	0746                	slli	a4,a4,0x11
    1a4a:	8345                	srli	a4,a4,0x11
    1a4c:	a39a                	sh	a4,0(a5)
    1a4e:	8082                	ret

00001a50 <set_password3>:
    1a50:	fa0fe2ef          	jal	t0,1f0 <__riscv_save_0>
    1a54:	842a                	mv	s0,a0
    1a56:	00b504b3          	add	s1,a0,a1
    1a5a:	00006937          	lui	s2,0x6
    1a5e:	00941463          	bne	s0,s1,1a66 <set_password3+0x16>
    1a62:	fb2fe06f          	j	214 <__riscv_restore_0>
    1a66:	0405                	addi	s0,s0,1
    1a68:	fff44583          	lbu	a1,-1(s0)
    1a6c:	08490513          	addi	a0,s2,132 # 6084 <_read+0x50>
    1a70:	6fa000ef          	jal	ra,216a <uart3_printf>
    1a74:	b7ed                	j	1a5e <set_password3+0xe>

00001a76 <set_password4>:
    1a76:	f7afe2ef          	jal	t0,1f0 <__riscv_save_0>
    1a7a:	842a                	mv	s0,a0
    1a7c:	00b504b3          	add	s1,a0,a1
    1a80:	00006937          	lui	s2,0x6
    1a84:	00941463          	bne	s0,s1,1a8c <set_password4+0x16>
    1a88:	f8cfe06f          	j	214 <__riscv_restore_0>
    1a8c:	0405                	addi	s0,s0,1
    1a8e:	fff44583          	lbu	a1,-1(s0)
    1a92:	08490513          	addi	a0,s2,132 # 6084 <_read+0x50>
    1a96:	209000ef          	jal	ra,249e <uart4_printf>
    1a9a:	b7ed                	j	1a84 <set_password4+0xe>

00001a9c <Parser_Process>:
    1a9c:	f3afe2ef          	jal	t0,1d6 <__riscv_save_4>
    1aa0:	84aa                	mv	s1,a0
    1aa2:	4681                	li	a3,0
    1aa4:	4a01                	li	s4,0
    1aa6:	4781                	li	a5,0
    1aa8:	4701                	li	a4,0
    1aaa:	4e05                	li	t3,1
    1aac:	4e85                	li	t4,1
    1aae:	0ff6f813          	andi	a6,a3,255
    1ab2:	3488                	lbu	a0,9(s1)
    1ab4:	02c86c63          	bltu	a6,a2,1aec <Parser_Process+0x50>
    1ab8:	4901                	li	s2,0
    1aba:	c125                	beqz	a0,1b1a <Parser_Process+0x7e>
    1abc:	ffe78413          	addi	s0,a5,-2
    1ac0:	8c19                	sub	s0,s0,a4
    1ac2:	0709                	addi	a4,a4,2
    1ac4:	0ff47413          	andi	s0,s0,255
    1ac8:	00e589b3          	add	s3,a1,a4
    1acc:	249c                	lbu	a5,8(s1)
    1ace:	04f95b63          	bge	s2,a5,1b24 <Parser_Process+0x88>
    1ad2:	40d8                	lw	a4,4(s1)
    1ad4:	00391793          	slli	a5,s2,0x3
    1ad8:	97ba                	add	a5,a5,a4
    1ada:	2398                	lbu	a4,0(a5)
    1adc:	01471663          	bne	a4,s4,1ae8 <Parser_Process+0x4c>
    1ae0:	43dc                	lw	a5,4(a5)
    1ae2:	85a2                	mv	a1,s0
    1ae4:	854e                	mv	a0,s3
    1ae6:	9782                	jalr	a5
    1ae8:	0905                	addi	s2,s2,1
    1aea:	b7cd                	j	1acc <Parser_Process+0x30>
    1aec:	00d58333          	add	t1,a1,a3
    1af0:	00034883          	lbu	a7,0(t1)
    1af4:	c509                	beqz	a0,1afe <Parser_Process+0x62>
    1af6:	01d50d63          	beq	a0,t4,1b10 <Parser_Process+0x74>
    1afa:	0685                	addi	a3,a3,1
    1afc:	bf4d                	j	1aae <Parser_Process+0x12>
    1afe:	2088                	lbu	a0,0(s1)
    1b00:	ff151de3          	bne	a0,a7,1afa <Parser_Process+0x5e>
    1b04:	00134a03          	lbu	s4,1(t1)
    1b08:	8742                	mv	a4,a6
    1b0a:	01c484a3          	sb	t3,9(s1)
    1b0e:	b7f5                	j	1afa <Parser_Process+0x5e>
    1b10:	3088                	lbu	a0,1(s1)
    1b12:	ff1514e3          	bne	a0,a7,1afa <Parser_Process+0x5e>
    1b16:	87c2                	mv	a5,a6
    1b18:	b7cd                	j	1afa <Parser_Process+0x5e>
    1b1a:	00006537          	lui	a0,0x6
    1b1e:	07c50513          	addi	a0,a0,124 # 607c <_read+0x48>
    1b22:	2651                	jal	1ea6 <uart2_printf>
    1b24:	000484a3          	sb	zero,9(s1)
    1b28:	ee2fe06f          	j	20a <__riscv_restore_4>

00001b2c <ringbuffer_init>:
    1b2c:	ec4fe2ef          	jal	t0,1f0 <__riscv_save_0>
    1b30:	842a                	mv	s0,a0
    1b32:	00052223          	sw	zero,4(a0)
    1b36:	00052023          	sw	zero,0(a0)
    1b3a:	1141                	addi	sp,sp,-16
    1b3c:	c80c                	sw	a1,16(s0)
    1b3e:	852e                	mv	a0,a1
    1b40:	c62e                	sw	a1,12(sp)
    1b42:	6b5000ef          	jal	ra,29f6 <malloc>
    1b46:	4632                	lw	a2,12(sp)
    1b48:	c408                	sw	a0,8(s0)
    1b4a:	4581                	li	a1,0
    1b4c:	ed4fe0ef          	jal	ra,220 <memset>
    1b50:	00042623          	sw	zero,12(s0)
    1b54:	0141                	addi	sp,sp,16
    1b56:	ebefe06f          	j	214 <__riscv_restore_0>

00001b5a <ringbuffer_write>:
    1b5a:	4558                	lw	a4,12(a0)
    1b5c:	491c                	lw	a5,16(a0)
    1b5e:	962e                	add	a2,a2,a1
    1b60:	02f71463          	bne	a4,a5,1b88 <ringbuffer_write+0x2e>
    1b64:	557d                	li	a0,-1
    1b66:	8082                	ret
    1b68:	4114                	lw	a3,0(a0)
    1b6a:	451c                	lw	a5,8(a0)
    1b6c:	0585                	addi	a1,a1,1
    1b6e:	fff5c703          	lbu	a4,-1(a1)
    1b72:	97b6                	add	a5,a5,a3
    1b74:	a398                	sb	a4,0(a5)
    1b76:	411c                	lw	a5,0(a0)
    1b78:	4918                	lw	a4,16(a0)
    1b7a:	0785                	addi	a5,a5,1
    1b7c:	02e7f7b3          	remu	a5,a5,a4
    1b80:	c11c                	sw	a5,0(a0)
    1b82:	455c                	lw	a5,12(a0)
    1b84:	0785                	addi	a5,a5,1
    1b86:	c55c                	sw	a5,12(a0)
    1b88:	00c58663          	beq	a1,a2,1b94 <ringbuffer_write+0x3a>
    1b8c:	4558                	lw	a4,12(a0)
    1b8e:	491c                	lw	a5,16(a0)
    1b90:	fcf76ce3          	bltu	a4,a5,1b68 <ringbuffer_write+0xe>
    1b94:	4501                	li	a0,0
    1b96:	8082                	ret

00001b98 <ringbuffer_read>:
    1b98:	455c                	lw	a5,12(a0)
    1b9a:	cf85                	beqz	a5,1bd2 <ringbuffer_read+0x3a>
    1b9c:	4781                	li	a5,0
    1b9e:	00f61663          	bne	a2,a5,1baa <ringbuffer_read+0x12>
    1ba2:	01879513          	slli	a0,a5,0x18
    1ba6:	8561                	srai	a0,a0,0x18
    1ba8:	8082                	ret
    1baa:	4558                	lw	a4,12(a0)
    1bac:	db7d                	beqz	a4,1ba2 <ringbuffer_read+0xa>
    1bae:	4154                	lw	a3,4(a0)
    1bb0:	4518                	lw	a4,8(a0)
    1bb2:	9736                	add	a4,a4,a3
    1bb4:	2314                	lbu	a3,0(a4)
    1bb6:	00f58733          	add	a4,a1,a5
    1bba:	0785                	addi	a5,a5,1
    1bbc:	a314                	sb	a3,0(a4)
    1bbe:	4158                	lw	a4,4(a0)
    1bc0:	4914                	lw	a3,16(a0)
    1bc2:	0705                	addi	a4,a4,1
    1bc4:	02d77733          	remu	a4,a4,a3
    1bc8:	c158                	sw	a4,4(a0)
    1bca:	4558                	lw	a4,12(a0)
    1bcc:	177d                	addi	a4,a4,-1
    1bce:	c558                	sw	a4,12(a0)
    1bd0:	b7f9                	j	1b9e <ringbuffer_read+0x6>
    1bd2:	557d                	li	a0,-1
    1bd4:	8082                	ret

00001bd6 <schedule_init>:
    1bd6:	4711                	li	a4,4
    1bd8:	84e1a223          	sw	a4,-1980(gp) # 200002ec <Task_num>
    1bdc:	8082                	ret

00001bde <schedule_proc>:
    1bde:	df8fe2ef          	jal	t0,1d6 <__riscv_save_4>
    1be2:	2091                	jal	1c26 <TIM2_GetTick>
    1be4:	84818793          	addi	a5,gp,-1976 # 200002f0 <system_time>
    1be8:	20000437          	lui	s0,0x20000
    1bec:	c388                	sw	a0,0(a5)
    1bee:	0007a223          	sw	zero,4(a5)
    1bf2:	04c40413          	addi	s0,s0,76 # 2000004c <system_array>
    1bf6:	4901                	li	s2,0
    1bf8:	84818493          	addi	s1,gp,-1976 # 200002f0 <system_time>
    1bfc:	8441a783          	lw	a5,-1980(gp) # 200002ec <Task_num>
    1c00:	00f96463          	bltu	s2,a5,1c08 <schedule_proc+0x2a>
    1c04:	e06fe06f          	j	20a <__riscv_restore_4>
    1c08:	4058                	lw	a4,4(s0)
    1c0a:	441c                	lw	a5,8(s0)
    1c0c:	97ba                	add	a5,a5,a4
    1c0e:	40d8                	lw	a4,4(s1)
    1c10:	e701                	bnez	a4,1c18 <schedule_proc+0x3a>
    1c12:	4098                	lw	a4,0(s1)
    1c14:	00f76663          	bltu	a4,a5,1c20 <schedule_proc+0x42>
    1c18:	401c                	lw	a5,0(s0)
    1c1a:	9782                	jalr	a5
    1c1c:	409c                	lw	a5,0(s1)
    1c1e:	c05c                	sw	a5,4(s0)
    1c20:	0905                	addi	s2,s2,1
    1c22:	0431                	addi	s0,s0,12
    1c24:	bfe1                	j	1bfc <schedule_proc+0x1e>

00001c26 <TIM2_GetTick>:
    1c26:	8501a503          	lw	a0,-1968(gp) # 200002f8 <TIM2_Tick>
    1c2a:	8082                	ret

00001c2c <TIM2_init>:
    1c2c:	dc4fe2ef          	jal	t0,1f0 <__riscv_save_0>
    1c30:	1101                	addi	sp,sp,-32
    1c32:	4585                	li	a1,1
    1c34:	4505                	li	a0,1
    1c36:	82aff0ef          	jal	ra,c60 <RCC_APB1PeriphClockCmd>
    1c3a:	40000537          	lui	a0,0x40000
    1c3e:	ab6ff0ef          	jal	ra,ef4 <TIM_InternalClockConfig>
    1c42:	08f00793          	li	a5,143
    1c46:	ca3e                	sw	a5,20(sp)
    1c48:	084c                	addi	a1,sp,20
    1c4a:	3e700793          	li	a5,999
    1c4e:	40000537          	lui	a0,0x40000
    1c52:	cc3e                	sw	a5,24(sp)
    1c54:	00010e23          	sb	zero,28(sp)
    1c58:	9c8ff0ef          	jal	ra,e20 <TIM_TimeBaseInit>
    1c5c:	4585                	li	a1,1
    1c5e:	40000537          	lui	a0,0x40000
    1c62:	ab8ff0ef          	jal	ra,f1a <TIM_ClearITPendingBit>
    1c66:	4605                	li	a2,1
    1c68:	4585                	li	a1,1
    1c6a:	40000537          	lui	a0,0x40000
    1c6e:	a74ff0ef          	jal	ra,ee2 <TIM_ITConfig>
    1c72:	4785                	li	a5,1
    1c74:	c83e                	sw	a5,16(sp)
    1c76:	0068                	addi	a0,sp,12
    1c78:	02c00793          	li	a5,44
    1c7c:	867c                	sh	a5,12(sp)
    1c7e:	00010723          	sb	zero,14(sp)
    1c82:	d77fe0ef          	jal	ra,9f8 <NVIC_Init>
    1c86:	4585                	li	a1,1
    1c88:	40000537          	lui	a0,0x40000
    1c8c:	a3eff0ef          	jal	ra,eca <TIM_Cmd>
    1c90:	6105                	addi	sp,sp,32
    1c92:	d82fe06f          	j	214 <__riscv_restore_0>

00001c96 <TIM2_IRQHandler>:
    1c96:	4585                	li	a1,1
    1c98:	40000537          	lui	a0,0x40000
    1c9c:	a68ff0ef          	jal	ra,f04 <TIM_GetFlagStatus>
    1ca0:	4785                	li	a5,1
    1ca2:	02f51163          	bne	a0,a5,1cc4 <TIM2_IRQHandler+0x2e>
    1ca6:	4585                	li	a1,1
    1ca8:	40000537          	lui	a0,0x40000
    1cac:	a6eff0ef          	jal	ra,f1a <TIM_ClearITPendingBit>
    1cb0:	4585                	li	a1,1
    1cb2:	40000537          	lui	a0,0x40000
    1cb6:	a58ff0ef          	jal	ra,f0e <TIM_ClearFlag>
    1cba:	85018793          	addi	a5,gp,-1968 # 200002f8 <TIM2_Tick>
    1cbe:	4398                	lw	a4,0(a5)
    1cc0:	0705                	addi	a4,a4,1
    1cc2:	c398                	sw	a4,0(a5)
    1cc4:	30200073          	mret

00001cc8 <USART2_DMAConfig>:
    1cc8:	d0efe2ef          	jal	t0,1d6 <__riscv_save_4>
    1ccc:	7179                	addi	sp,sp,-48
    1cce:	8aaa                	mv	s5,a0
    1cd0:	4585                	li	a1,1
    1cd2:	4505                	li	a0,1
    1cd4:	ca02                	sw	zero,20(sp)
    1cd6:	cc02                	sw	zero,24(sp)
    1cd8:	ce02                	sw	zero,28(sp)
    1cda:	d002                	sw	zero,32(sp)
    1cdc:	d202                	sw	zero,36(sp)
    1cde:	d402                	sw	zero,40(sp)
    1ce0:	d602                	sw	zero,44(sp)
    1ce2:	f43fe0ef          	jal	ra,c24 <RCC_AHBPeriphClockCmd>
    1ce6:	4585                	li	a1,1
    1ce8:	00020537          	lui	a0,0x20
    1cec:	f75fe0ef          	jal	ra,c60 <RCC_APB1PeriphClockCmd>
    1cf0:	4585                	li	a1,1
    1cf2:	4511                	li	a0,4
    1cf4:	f4ffe0ef          	jal	ra,c42 <RCC_APB2PeriphClockCmd>
    1cf8:	400204b7          	lui	s1,0x40020
    1cfc:	08048513          	addi	a0,s1,128 # 40020080 <_eusrstack+0x20018080>
    1d00:	9fdfe0ef          	jal	ra,6fc <DMA_DeInit>
    1d04:	edc18793          	addi	a5,gp,-292 # 20000984 <DMA_InitStructure_USART2_TX>
    1d08:	40004437          	lui	s0,0x40004
    1d0c:	1cc18713          	addi	a4,gp,460 # 20000c74 <uart2_tx_buffer>
    1d10:	c3d8                	sw	a4,4(a5)
    1d12:	08000913          	li	s2,128
    1d16:	4741                	li	a4,16
    1d18:	40440a13          	addi	s4,s0,1028 # 40004404 <_eusrstack+0x1fffc404>
    1d1c:	698d                	lui	s3,0x3
    1d1e:	edc18593          	addi	a1,gp,-292 # 20000984 <DMA_InitStructure_USART2_TX>
    1d22:	08048513          	addi	a0,s1,128
    1d26:	0147a023          	sw	s4,0(a5)
    1d2a:	c798                	sw	a4,8(a5)
    1d2c:	0127a623          	sw	s2,12(a5)
    1d30:	0127aa23          	sw	s2,20(a5)
    1d34:	0337a223          	sw	s3,36(a5)
    1d38:	0007a823          	sw	zero,16(a5)
    1d3c:	0007ac23          	sw	zero,24(a5)
    1d40:	0007ae23          	sw	zero,28(a5)
    1d44:	0207a023          	sw	zero,32(a5)
    1d48:	0207a423          	sw	zero,40(a5)
    1d4c:	b1dfe0ef          	jal	ra,868 <DMA_Init>
    1d50:	06c48513          	addi	a0,s1,108
    1d54:	9a9fe0ef          	jal	ra,6fc <DMA_DeInit>
    1d58:	eb018793          	addi	a5,gp,-336 # 20000958 <DMA_InitStructure_USART2_RX>
    1d5c:	fcc18713          	addi	a4,gp,-52 # 20000a74 <uart2_rx_buffer>
    1d60:	c3d8                	sw	a4,4(a5)
    1d62:	06c48513          	addi	a0,s1,108
    1d66:	20000713          	li	a4,512
    1d6a:	eb018593          	addi	a1,gp,-336 # 20000958 <DMA_InitStructure_USART2_RX>
    1d6e:	c7d8                	sw	a4,12(a5)
    1d70:	0147a023          	sw	s4,0(a5)
    1d74:	0127aa23          	sw	s2,20(a5)
    1d78:	0337a223          	sw	s3,36(a5)
    1d7c:	0007a423          	sw	zero,8(a5)
    1d80:	0007a823          	sw	zero,16(a5)
    1d84:	0007ac23          	sw	zero,24(a5)
    1d88:	0007ae23          	sw	zero,28(a5)
    1d8c:	0207a023          	sw	zero,32(a5)
    1d90:	0207a423          	sw	zero,40(a5)
    1d94:	ad5fe0ef          	jal	ra,868 <DMA_Init>
    1d98:	4791                	li	a5,4
    1d9a:	82fc                	sh	a5,20(sp)
    1d9c:	40011937          	lui	s2,0x40011
    1da0:	478d                	li	a5,3
    1da2:	cc3e                	sw	a5,24(sp)
    1da4:	084c                	addi	a1,sp,20
    1da6:	47e1                	li	a5,24
    1da8:	80090513          	addi	a0,s2,-2048 # 40010800 <_eusrstack+0x20008800>
    1dac:	ce3e                	sw	a5,28(sp)
    1dae:	b7dfe0ef          	jal	ra,92a <GPIO_Init>
    1db2:	47a1                	li	a5,8
    1db4:	82fc                	sh	a5,20(sp)
    1db6:	084c                	addi	a1,sp,20
    1db8:	4791                	li	a5,4
    1dba:	80090513          	addi	a0,s2,-2048
    1dbe:	ce3e                	sw	a5,28(sp)
    1dc0:	b6bfe0ef          	jal	ra,92a <GPIO_Init>
    1dc4:	000c07b7          	lui	a5,0xc0
    1dc8:	100c                	addi	a1,sp,32
    1dca:	40040513          	addi	a0,s0,1024
    1dce:	d43e                	sw	a5,40(sp)
    1dd0:	d056                	sw	s5,32(sp)
    1dd2:	d202                	sw	zero,36(sp)
    1dd4:	02011623          	sh	zero,44(sp)
    1dd8:	94eff0ef          	jal	ra,f26 <USART_Init>
    1ddc:	4605                	li	a2,1
    1dde:	40040513          	addi	a0,s0,1024
    1de2:	42400593          	li	a1,1060
    1de6:	9e4ff0ef          	jal	ra,fca <USART_ITConfig>
    1dea:	4585                	li	a1,1
    1dec:	40040513          	addi	a0,s0,1024
    1df0:	9c4ff0ef          	jal	ra,fb4 <USART_Cmd>
    1df4:	33600793          	li	a5,822
    1df8:	867c                	sh	a5,12(sp)
    1dfa:	0068                	addi	a0,sp,12
    1dfc:	4785                	li	a5,1
    1dfe:	c83e                	sw	a5,16(sp)
    1e00:	00010723          	sb	zero,14(sp)
    1e04:	bf5fe0ef          	jal	ra,9f8 <NVIC_Init>
    1e08:	08048513          	addi	a0,s1,128
    1e0c:	4585                	li	a1,1
    1e0e:	a93fe0ef          	jal	ra,8a0 <DMA_Cmd>
    1e12:	06c48513          	addi	a0,s1,108
    1e16:	4585                	li	a1,1
    1e18:	a89fe0ef          	jal	ra,8a0 <DMA_Cmd>
    1e1c:	40040513          	addi	a0,s0,1024
    1e20:	4605                	li	a2,1
    1e22:	04000593          	li	a1,64
    1e26:	9daff0ef          	jal	ra,1000 <USART_DMACmd>
    1e2a:	4605                	li	a2,1
    1e2c:	08000593          	li	a1,128
    1e30:	40040513          	addi	a0,s0,1024
    1e34:	9ccff0ef          	jal	ra,1000 <USART_DMACmd>
    1e38:	6145                	addi	sp,sp,48
    1e3a:	bd0fe06f          	j	20a <__riscv_restore_4>

00001e3e <USART2_Init>:
    1e3e:	bb2fe2ef          	jal	t0,1f0 <__riscv_save_0>
    1e42:	3559                	jal	1cc8 <USART2_DMAConfig>
    1e44:	20000593          	li	a1,512
    1e48:	fb818513          	addi	a0,gp,-72 # 20000a60 <uart2_ringbuffer>
    1e4c:	ce1ff0ef          	jal	ra,1b2c <ringbuffer_init>
    1e50:	bc4fe06f          	j	214 <__riscv_restore_0>

00001e54 <USART2_DMA_SendBuff>:
    1e54:	b9cfe2ef          	jal	t0,1f0 <__riscv_save_0>
    1e58:	842a                	mv	s0,a0
    1e5a:	84ae                	mv	s1,a1
    1e5c:	02000537          	lui	a0,0x2000
    1e60:	a5dfe0ef          	jal	ra,8bc <DMA_GetFlagStatus>
    1e64:	dd65                	beqz	a0,1e5c <USART2_DMA_SendBuff+0x8>
    1e66:	8626                	mv	a2,s1
    1e68:	85a2                	mv	a1,s0
    1e6a:	1cc18913          	addi	s2,gp,460 # 20000c74 <uart2_tx_buffer>
    1e6e:	1cc18513          	addi	a0,gp,460 # 20000c74 <uart2_tx_buffer>
    1e72:	399000ef          	jal	ra,2a0a <memcpy>
    1e76:	40020437          	lui	s0,0x40020
    1e7a:	08040513          	addi	a0,s0,128 # 40020080 <_eusrstack+0x20018080>
    1e7e:	87ffe0ef          	jal	ra,6fc <DMA_DeInit>
    1e82:	edc18793          	addi	a5,gp,-292 # 20000984 <DMA_InitStructure_USART2_TX>
    1e86:	08040513          	addi	a0,s0,128
    1e8a:	edc18593          	addi	a1,gp,-292 # 20000984 <DMA_InitStructure_USART2_TX>
    1e8e:	0127a223          	sw	s2,4(a5) # c0004 <_data_lma+0xb9b98>
    1e92:	c7c4                	sw	s1,12(a5)
    1e94:	9d5fe0ef          	jal	ra,868 <DMA_Init>
    1e98:	4585                	li	a1,1
    1e9a:	08040513          	addi	a0,s0,128
    1e9e:	a03fe0ef          	jal	ra,8a0 <DMA_Cmd>
    1ea2:	b72fe06f          	j	214 <__riscv_restore_0>

00001ea6 <uart2_printf>:
    1ea6:	7131                	addi	sp,sp,-192
    1ea8:	cd22                	sw	s0,152(sp)
    1eaa:	40004437          	lui	s0,0x40004
    1eae:	cb26                	sw	s1,148(sp)
    1eb0:	cf06                	sw	ra,156(sp)
    1eb2:	84aa                	mv	s1,a0
    1eb4:	d32e                	sw	a1,164(sp)
    1eb6:	d532                	sw	a2,168(sp)
    1eb8:	d736                	sw	a3,172(sp)
    1eba:	d93a                	sw	a4,176(sp)
    1ebc:	db3e                	sw	a5,180(sp)
    1ebe:	dd42                	sw	a6,184(sp)
    1ec0:	df46                	sw	a7,188(sp)
    1ec2:	40040413          	addi	s0,s0,1024 # 40004400 <_eusrstack+0x1fffc400>
    1ec6:	08000593          	li	a1,128
    1eca:	8522                	mv	a0,s0
    1ecc:	94eff0ef          	jal	ra,101a <USART_GetFlagStatus>
    1ed0:	d97d                	beqz	a0,1ec6 <uart2_printf+0x20>
    1ed2:	1154                	addi	a3,sp,164
    1ed4:	8626                	mv	a2,s1
    1ed6:	08000593          	li	a1,128
    1eda:	0808                	addi	a0,sp,16
    1edc:	c636                	sw	a3,12(sp)
    1ede:	113010ef          	jal	ra,37f0 <vsniprintf>
    1ee2:	0808                	addi	a0,sp,16
    1ee4:	3cc010ef          	jal	ra,32b0 <strlen>
    1ee8:	0ff57593          	andi	a1,a0,255
    1eec:	0808                	addi	a0,sp,16
    1eee:	379d                	jal	1e54 <USART2_DMA_SendBuff>
    1ef0:	40fa                	lw	ra,156(sp)
    1ef2:	446a                	lw	s0,152(sp)
    1ef4:	44da                	lw	s1,148(sp)
    1ef6:	6129                	addi	sp,sp,192
    1ef8:	8082                	ret

00001efa <USART2_IRQHandler>:
    1efa:	1141                	addi	sp,sp,-16
    1efc:	c622                	sw	s0,12(sp)
    1efe:	40004437          	lui	s0,0x40004
    1f02:	42400593          	li	a1,1060
    1f06:	40040513          	addi	a0,s0,1024 # 40004400 <_eusrstack+0x1fffc400>
    1f0a:	c426                	sw	s1,8(sp)
    1f0c:	918ff0ef          	jal	ra,1024 <USART_GetITStatus>
    1f10:	4785                	li	a5,1
    1f12:	06f51463          	bne	a0,a5,1f7a <USART2_IRQHandler+0x80>
    1f16:	40040513          	addi	a0,s0,1024
    1f1a:	42400593          	li	a1,1060
    1f1e:	942ff0ef          	jal	ra,1060 <USART_ClearITPendingBit>
    1f22:	40045703          	lhu	a4,1024(s0)
    1f26:	40445783          	lhu	a5,1028(s0)
    1f2a:	40020437          	lui	s0,0x40020
    1f2e:	4581                	li	a1,0
    1f30:	06c40513          	addi	a0,s0,108 # 4002006c <_eusrstack+0x2001806c>
    1f34:	85518493          	addi	s1,gp,-1963 # 200002fd <USART2_Revnum>
    1f38:	a09c                	sb	a5,0(s1)
    1f3a:	967fe0ef          	jal	ra,8a0 <DMA_Cmd>
    1f3e:	06c40513          	addi	a0,s0,108
    1f42:	973fe0ef          	jal	ra,8b4 <DMA_GetCurrDataCounter>
    1f46:	40a00633          	neg	a2,a0
    1f4a:	0ff67613          	andi	a2,a2,255
    1f4e:	20000793          	li	a5,512
    1f52:	a090                	sb	a2,0(s1)
    1f54:	d83c                	sw	a5,112(s0)
    1f56:	fcc18593          	addi	a1,gp,-52 # 20000a74 <uart2_rx_buffer>
    1f5a:	fb818513          	addi	a0,gp,-72 # 20000a60 <uart2_ringbuffer>
    1f5e:	bfdff0ef          	jal	ra,1b5a <ringbuffer_write>
    1f62:	06c40413          	addi	s0,s0,108
    1f66:	4585                	li	a1,1
    1f68:	8522                	mv	a0,s0
    1f6a:	937fe0ef          	jal	ra,8a0 <DMA_Cmd>
    1f6e:	85818793          	addi	a5,gp,-1960 # 20000300 <uart2_flag>
    1f72:	2398                	lbu	a4,0(a5)
    1f74:	00176713          	ori	a4,a4,1
    1f78:	a398                	sb	a4,0(a5)
    1f7a:	4432                	lw	s0,12(sp)
    1f7c:	44a2                	lw	s1,8(sp)
    1f7e:	0141                	addi	sp,sp,16
    1f80:	30200073          	mret

00001f84 <USART3_DMAConfig>:
    1f84:	a52fe2ef          	jal	t0,1d6 <__riscv_save_4>
    1f88:	7179                	addi	sp,sp,-48
    1f8a:	8b2a                	mv	s6,a0
    1f8c:	4585                	li	a1,1
    1f8e:	4505                	li	a0,1
    1f90:	ca02                	sw	zero,20(sp)
    1f92:	cc02                	sw	zero,24(sp)
    1f94:	ce02                	sw	zero,28(sp)
    1f96:	d002                	sw	zero,32(sp)
    1f98:	d202                	sw	zero,36(sp)
    1f9a:	d402                	sw	zero,40(sp)
    1f9c:	d602                	sw	zero,44(sp)
    1f9e:	c87fe0ef          	jal	ra,c24 <RCC_AHBPeriphClockCmd>
    1fa2:	4585                	li	a1,1
    1fa4:	00040537          	lui	a0,0x40
    1fa8:	cb9fe0ef          	jal	ra,c60 <RCC_APB1PeriphClockCmd>
    1fac:	4585                	li	a1,1
    1fae:	4521                	li	a0,8
    1fb0:	c93fe0ef          	jal	ra,c42 <RCC_APB2PeriphClockCmd>
    1fb4:	400204b7          	lui	s1,0x40020
    1fb8:	01c48513          	addi	a0,s1,28 # 4002001c <_eusrstack+0x2001801c>
    1fbc:	f40fe0ef          	jal	ra,6fc <DMA_DeInit>
    1fc0:	f3418793          	addi	a5,gp,-204 # 200009dc <DMA_InitStructure_USART3_TX>
    1fc4:	40005437          	lui	s0,0x40005
    1fc8:	36018713          	addi	a4,gp,864 # 20000e08 <uart3_tx_buffer>
    1fcc:	c3d8                	sw	a4,4(a5)
    1fce:	80440a93          	addi	s5,s0,-2044 # 40004804 <_eusrstack+0x1fffc804>
    1fd2:	4741                	li	a4,16
    1fd4:	10000a13          	li	s4,256
    1fd8:	08000993          	li	s3,128
    1fdc:	690d                	lui	s2,0x3
    1fde:	f3418593          	addi	a1,gp,-204 # 200009dc <DMA_InitStructure_USART3_TX>
    1fe2:	01c48513          	addi	a0,s1,28
    1fe6:	0157a023          	sw	s5,0(a5)
    1fea:	c798                	sw	a4,8(a5)
    1fec:	0147a623          	sw	s4,12(a5)
    1ff0:	0137aa23          	sw	s3,20(a5)
    1ff4:	0327a223          	sw	s2,36(a5)
    1ff8:	0007a823          	sw	zero,16(a5)
    1ffc:	0007ac23          	sw	zero,24(a5)
    2000:	0007ae23          	sw	zero,28(a5)
    2004:	0207a023          	sw	zero,32(a5)
    2008:	0207a423          	sw	zero,40(a5)
    200c:	85dfe0ef          	jal	ra,868 <DMA_Init>
    2010:	03048513          	addi	a0,s1,48
    2014:	ee8fe0ef          	jal	ra,6fc <DMA_DeInit>
    2018:	f0818793          	addi	a5,gp,-248 # 200009b0 <DMA_InitStructure_USART3_RX>
    201c:	26018713          	addi	a4,gp,608 # 20000d08 <uart3_rx_buffer>
    2020:	03048513          	addi	a0,s1,48
    2024:	f0818593          	addi	a1,gp,-248 # 200009b0 <DMA_InitStructure_USART3_RX>
    2028:	c3d8                	sw	a4,4(a5)
    202a:	0157a023          	sw	s5,0(a5)
    202e:	0147a623          	sw	s4,12(a5)
    2032:	0137aa23          	sw	s3,20(a5)
    2036:	0327a223          	sw	s2,36(a5)
    203a:	0007a423          	sw	zero,8(a5)
    203e:	0007a823          	sw	zero,16(a5)
    2042:	0007ac23          	sw	zero,24(a5)
    2046:	0007ae23          	sw	zero,28(a5)
    204a:	0207a023          	sw	zero,32(a5)
    204e:	0207a423          	sw	zero,40(a5)
    2052:	817fe0ef          	jal	ra,868 <DMA_Init>
    2056:	40000793          	li	a5,1024
    205a:	82fc                	sh	a5,20(sp)
    205c:	40011937          	lui	s2,0x40011
    2060:	478d                	li	a5,3
    2062:	cc3e                	sw	a5,24(sp)
    2064:	084c                	addi	a1,sp,20
    2066:	47e1                	li	a5,24
    2068:	c0090513          	addi	a0,s2,-1024 # 40010c00 <_eusrstack+0x20008c00>
    206c:	ce3e                	sw	a5,28(sp)
    206e:	8bdfe0ef          	jal	ra,92a <GPIO_Init>
    2072:	6785                	lui	a5,0x1
    2074:	80078793          	addi	a5,a5,-2048 # 800 <__stack_size>
    2078:	82fc                	sh	a5,20(sp)
    207a:	084c                	addi	a1,sp,20
    207c:	4791                	li	a5,4
    207e:	c0090513          	addi	a0,s2,-1024
    2082:	ce3e                	sw	a5,28(sp)
    2084:	8a7fe0ef          	jal	ra,92a <GPIO_Init>
    2088:	000c07b7          	lui	a5,0xc0
    208c:	100c                	addi	a1,sp,32
    208e:	80040513          	addi	a0,s0,-2048
    2092:	d43e                	sw	a5,40(sp)
    2094:	d05a                	sw	s6,32(sp)
    2096:	d202                	sw	zero,36(sp)
    2098:	02011623          	sh	zero,44(sp)
    209c:	e8bfe0ef          	jal	ra,f26 <USART_Init>
    20a0:	4605                	li	a2,1
    20a2:	80040513          	addi	a0,s0,-2048
    20a6:	42400593          	li	a1,1060
    20aa:	f21fe0ef          	jal	ra,fca <USART_ITConfig>
    20ae:	4585                	li	a1,1
    20b0:	80040513          	addi	a0,s0,-2048
    20b4:	f01fe0ef          	jal	ra,fb4 <USART_Cmd>
    20b8:	33700793          	li	a5,823
    20bc:	867c                	sh	a5,12(sp)
    20be:	0068                	addi	a0,sp,12
    20c0:	4785                	li	a5,1
    20c2:	c83e                	sw	a5,16(sp)
    20c4:	00010723          	sb	zero,14(sp)
    20c8:	931fe0ef          	jal	ra,9f8 <NVIC_Init>
    20cc:	01c48513          	addi	a0,s1,28
    20d0:	4585                	li	a1,1
    20d2:	fcefe0ef          	jal	ra,8a0 <DMA_Cmd>
    20d6:	03048513          	addi	a0,s1,48
    20da:	4585                	li	a1,1
    20dc:	fc4fe0ef          	jal	ra,8a0 <DMA_Cmd>
    20e0:	80040513          	addi	a0,s0,-2048
    20e4:	4605                	li	a2,1
    20e6:	04000593          	li	a1,64
    20ea:	f17fe0ef          	jal	ra,1000 <USART_DMACmd>
    20ee:	4605                	li	a2,1
    20f0:	08000593          	li	a1,128
    20f4:	80040513          	addi	a0,s0,-2048
    20f8:	f09fe0ef          	jal	ra,1000 <USART_DMACmd>
    20fc:	6145                	addi	sp,sp,48
    20fe:	90cfe06f          	j	20a <__riscv_restore_4>

00002102 <USART3_Init>:
    2102:	8eefe2ef          	jal	t0,1f0 <__riscv_save_0>
    2106:	3dbd                	jal	1f84 <USART3_DMAConfig>
    2108:	10000593          	li	a1,256
    210c:	24c18513          	addi	a0,gp,588 # 20000cf4 <uart3_ringbuffer>
    2110:	a1dff0ef          	jal	ra,1b2c <ringbuffer_init>
    2114:	900fe06f          	j	214 <__riscv_restore_0>

00002118 <USART3_DMA_SendBuff>:
    2118:	8d8fe2ef          	jal	t0,1f0 <__riscv_save_0>
    211c:	842a                	mv	s0,a0
    211e:	84ae                	mv	s1,a1
    2120:	02000513          	li	a0,32
    2124:	f98fe0ef          	jal	ra,8bc <DMA_GetFlagStatus>
    2128:	dd65                	beqz	a0,2120 <USART3_DMA_SendBuff+0x8>
    212a:	8626                	mv	a2,s1
    212c:	85a2                	mv	a1,s0
    212e:	36018913          	addi	s2,gp,864 # 20000e08 <uart3_tx_buffer>
    2132:	36018513          	addi	a0,gp,864 # 20000e08 <uart3_tx_buffer>
    2136:	0d5000ef          	jal	ra,2a0a <memcpy>
    213a:	40020437          	lui	s0,0x40020
    213e:	01c40513          	addi	a0,s0,28 # 4002001c <_eusrstack+0x2001801c>
    2142:	dbafe0ef          	jal	ra,6fc <DMA_DeInit>
    2146:	f3418793          	addi	a5,gp,-204 # 200009dc <DMA_InitStructure_USART3_TX>
    214a:	01c40513          	addi	a0,s0,28
    214e:	f3418593          	addi	a1,gp,-204 # 200009dc <DMA_InitStructure_USART3_TX>
    2152:	0127a223          	sw	s2,4(a5) # c0004 <_data_lma+0xb9b98>
    2156:	c7c4                	sw	s1,12(a5)
    2158:	f10fe0ef          	jal	ra,868 <DMA_Init>
    215c:	4585                	li	a1,1
    215e:	01c40513          	addi	a0,s0,28
    2162:	f3efe0ef          	jal	ra,8a0 <DMA_Cmd>
    2166:	8aefe06f          	j	214 <__riscv_restore_0>

0000216a <uart3_printf>:
    216a:	7131                	addi	sp,sp,-192
    216c:	cd22                	sw	s0,152(sp)
    216e:	40005437          	lui	s0,0x40005
    2172:	cb26                	sw	s1,148(sp)
    2174:	cf06                	sw	ra,156(sp)
    2176:	84aa                	mv	s1,a0
    2178:	d32e                	sw	a1,164(sp)
    217a:	d532                	sw	a2,168(sp)
    217c:	d736                	sw	a3,172(sp)
    217e:	d93a                	sw	a4,176(sp)
    2180:	db3e                	sw	a5,180(sp)
    2182:	dd42                	sw	a6,184(sp)
    2184:	df46                	sw	a7,188(sp)
    2186:	80040413          	addi	s0,s0,-2048 # 40004800 <_eusrstack+0x1fffc800>
    218a:	08000593          	li	a1,128
    218e:	8522                	mv	a0,s0
    2190:	e8bfe0ef          	jal	ra,101a <USART_GetFlagStatus>
    2194:	d97d                	beqz	a0,218a <uart3_printf+0x20>
    2196:	1154                	addi	a3,sp,164
    2198:	8626                	mv	a2,s1
    219a:	08000593          	li	a1,128
    219e:	0808                	addi	a0,sp,16
    21a0:	c636                	sw	a3,12(sp)
    21a2:	64e010ef          	jal	ra,37f0 <vsniprintf>
    21a6:	0808                	addi	a0,sp,16
    21a8:	108010ef          	jal	ra,32b0 <strlen>
    21ac:	0ff57593          	andi	a1,a0,255
    21b0:	0808                	addi	a0,sp,16
    21b2:	379d                	jal	2118 <USART3_DMA_SendBuff>
    21b4:	40fa                	lw	ra,156(sp)
    21b6:	446a                	lw	s0,152(sp)
    21b8:	44da                	lw	s1,148(sp)
    21ba:	6129                	addi	sp,sp,192
    21bc:	8082                	ret

000021be <USART3_IRQHandler>:
    21be:	1141                	addi	sp,sp,-16
    21c0:	c622                	sw	s0,12(sp)
    21c2:	40005437          	lui	s0,0x40005
    21c6:	42400593          	li	a1,1060
    21ca:	80040513          	addi	a0,s0,-2048 # 40004800 <_eusrstack+0x1fffc800>
    21ce:	e57fe0ef          	jal	ra,1024 <USART_GetITStatus>
    21d2:	4785                	li	a5,1
    21d4:	06f51263          	bne	a0,a5,2238 <USART3_IRQHandler+0x7a>
    21d8:	80040513          	addi	a0,s0,-2048
    21dc:	42400593          	li	a1,1060
    21e0:	e81fe0ef          	jal	ra,1060 <USART_ClearITPendingBit>
    21e4:	80045703          	lhu	a4,-2048(s0)
    21e8:	80445783          	lhu	a5,-2044(s0)
    21ec:	40020437          	lui	s0,0x40020
    21f0:	4581                	li	a1,0
    21f2:	03040513          	addi	a0,s0,48 # 40020030 <_eusrstack+0x20018030>
    21f6:	eaafe0ef          	jal	ra,8a0 <DMA_Cmd>
    21fa:	03040513          	addi	a0,s0,48
    21fe:	eb6fe0ef          	jal	ra,8b4 <DMA_GetCurrDataCounter>
    2202:	40a00633          	neg	a2,a0
    2206:	0ff67613          	andi	a2,a2,255
    220a:	84c18b23          	sb	a2,-1962(gp) # 200002fe <USART3_Revnum>
    220e:	10000793          	li	a5,256
    2212:	d85c                	sw	a5,52(s0)
    2214:	26018593          	addi	a1,gp,608 # 20000d08 <uart3_rx_buffer>
    2218:	24c18513          	addi	a0,gp,588 # 20000cf4 <uart3_ringbuffer>
    221c:	93fff0ef          	jal	ra,1b5a <ringbuffer_write>
    2220:	03040413          	addi	s0,s0,48
    2224:	4585                	li	a1,1
    2226:	8522                	mv	a0,s0
    2228:	e78fe0ef          	jal	ra,8a0 <DMA_Cmd>
    222c:	85918793          	addi	a5,gp,-1959 # 20000301 <uart3_flag>
    2230:	2398                	lbu	a4,0(a5)
    2232:	00176713          	ori	a4,a4,1
    2236:	a398                	sb	a4,0(a5)
    2238:	4432                	lw	s0,12(sp)
    223a:	0141                	addi	sp,sp,16
    223c:	30200073          	mret

00002240 <USART4_DMAConfig>:
    2240:	f97fd2ef          	jal	t0,1d6 <__riscv_save_4>
    2244:	7179                	addi	sp,sp,-48
    2246:	8b2a                	mv	s6,a0
    2248:	4585                	li	a1,1
    224a:	4509                	li	a0,2
    224c:	ca02                	sw	zero,20(sp)
    224e:	cc02                	sw	zero,24(sp)
    2250:	ce02                	sw	zero,28(sp)
    2252:	d002                	sw	zero,32(sp)
    2254:	d202                	sw	zero,36(sp)
    2256:	d402                	sw	zero,40(sp)
    2258:	d602                	sw	zero,44(sp)
    225a:	9cbfe0ef          	jal	ra,c24 <RCC_AHBPeriphClockCmd>
    225e:	4585                	li	a1,1
    2260:	00080537          	lui	a0,0x80
    2264:	9fdfe0ef          	jal	ra,c60 <RCC_APB1PeriphClockCmd>
    2268:	4585                	li	a1,1
    226a:	4541                	li	a0,16
    226c:	9d7fe0ef          	jal	ra,c42 <RCC_APB2PeriphClockCmd>
    2270:	400204b7          	lui	s1,0x40020
    2274:	45848513          	addi	a0,s1,1112 # 40020458 <_eusrstack+0x20018458>
    2278:	c84fe0ef          	jal	ra,6fc <DMA_DeInit>
    227c:	f8c18793          	addi	a5,gp,-116 # 20000a34 <DMA_InitStructure_USART4_TX>
    2280:	40005437          	lui	s0,0x40005
    2284:	67418713          	addi	a4,gp,1652 # 2000111c <uart4_tx_buffer>
    2288:	c3d8                	sw	a4,4(a5)
    228a:	c0440a93          	addi	s5,s0,-1020 # 40004c04 <_eusrstack+0x1fffcc04>
    228e:	4741                	li	a4,16
    2290:	20000a13          	li	s4,512
    2294:	08000993          	li	s3,128
    2298:	690d                	lui	s2,0x3
    229a:	f8c18593          	addi	a1,gp,-116 # 20000a34 <DMA_InitStructure_USART4_TX>
    229e:	45848513          	addi	a0,s1,1112
    22a2:	0157a023          	sw	s5,0(a5)
    22a6:	c798                	sw	a4,8(a5)
    22a8:	0147a623          	sw	s4,12(a5)
    22ac:	0137aa23          	sw	s3,20(a5)
    22b0:	0327a223          	sw	s2,36(a5)
    22b4:	0007a823          	sw	zero,16(a5)
    22b8:	0007ac23          	sw	zero,24(a5)
    22bc:	0007ae23          	sw	zero,28(a5)
    22c0:	0207a023          	sw	zero,32(a5)
    22c4:	0207a423          	sw	zero,40(a5)
    22c8:	da0fe0ef          	jal	ra,868 <DMA_Init>
    22cc:	43048513          	addi	a0,s1,1072
    22d0:	c2cfe0ef          	jal	ra,6fc <DMA_DeInit>
    22d4:	f6018793          	addi	a5,gp,-160 # 20000a08 <DMA_InitStructure_USART4_RX>
    22d8:	47418713          	addi	a4,gp,1140 # 20000f1c <uart4_rx_buffer>
    22dc:	43048513          	addi	a0,s1,1072
    22e0:	f6018593          	addi	a1,gp,-160 # 20000a08 <DMA_InitStructure_USART4_RX>
    22e4:	c3d8                	sw	a4,4(a5)
    22e6:	0157a023          	sw	s5,0(a5)
    22ea:	0147a623          	sw	s4,12(a5)
    22ee:	0137aa23          	sw	s3,20(a5)
    22f2:	0327a223          	sw	s2,36(a5)
    22f6:	0007a423          	sw	zero,8(a5)
    22fa:	0007a823          	sw	zero,16(a5)
    22fe:	0007ac23          	sw	zero,24(a5)
    2302:	0007ae23          	sw	zero,28(a5)
    2306:	0207a023          	sw	zero,32(a5)
    230a:	0207a423          	sw	zero,40(a5)
    230e:	d5afe0ef          	jal	ra,868 <DMA_Init>
    2312:	40000793          	li	a5,1024
    2316:	82fc                	sh	a5,20(sp)
    2318:	478d                	li	a5,3
    231a:	cc3e                	sw	a5,24(sp)
    231c:	084c                	addi	a1,sp,20
    231e:	47e1                	li	a5,24
    2320:	40011537          	lui	a0,0x40011
    2324:	ce3e                	sw	a5,28(sp)
    2326:	e04fe0ef          	jal	ra,92a <GPIO_Init>
    232a:	6785                	lui	a5,0x1
    232c:	80078793          	addi	a5,a5,-2048 # 800 <__stack_size>
    2330:	82fc                	sh	a5,20(sp)
    2332:	084c                	addi	a1,sp,20
    2334:	4791                	li	a5,4
    2336:	40011537          	lui	a0,0x40011
    233a:	ce3e                	sw	a5,28(sp)
    233c:	deefe0ef          	jal	ra,92a <GPIO_Init>
    2340:	000c07b7          	lui	a5,0xc0
    2344:	100c                	addi	a1,sp,32
    2346:	c0040513          	addi	a0,s0,-1024
    234a:	d43e                	sw	a5,40(sp)
    234c:	d05a                	sw	s6,32(sp)
    234e:	d202                	sw	zero,36(sp)
    2350:	02011623          	sh	zero,44(sp)
    2354:	bd3fe0ef          	jal	ra,f26 <USART_Init>
    2358:	4605                	li	a2,1
    235a:	c0040513          	addi	a0,s0,-1024
    235e:	42400593          	li	a1,1060
    2362:	c69fe0ef          	jal	ra,fca <USART_ITConfig>
    2366:	4585                	li	a1,1
    2368:	c0040513          	addi	a0,s0,-1024
    236c:	c49fe0ef          	jal	ra,fb4 <USART_Cmd>
    2370:	34400793          	li	a5,836
    2374:	867c                	sh	a5,12(sp)
    2376:	0068                	addi	a0,sp,12
    2378:	4785                	li	a5,1
    237a:	c83e                	sw	a5,16(sp)
    237c:	00010723          	sb	zero,14(sp)
    2380:	e78fe0ef          	jal	ra,9f8 <NVIC_Init>
    2384:	45848513          	addi	a0,s1,1112
    2388:	4585                	li	a1,1
    238a:	d16fe0ef          	jal	ra,8a0 <DMA_Cmd>
    238e:	43048513          	addi	a0,s1,1072
    2392:	4585                	li	a1,1
    2394:	d0cfe0ef          	jal	ra,8a0 <DMA_Cmd>
    2398:	c0040513          	addi	a0,s0,-1024
    239c:	4605                	li	a2,1
    239e:	04000593          	li	a1,64
    23a2:	c5ffe0ef          	jal	ra,1000 <USART_DMACmd>
    23a6:	4605                	li	a2,1
    23a8:	08000593          	li	a1,128
    23ac:	c0040513          	addi	a0,s0,-1024
    23b0:	c51fe0ef          	jal	ra,1000 <USART_DMACmd>
    23b4:	6145                	addi	sp,sp,48
    23b6:	e55fd06f          	j	20a <__riscv_restore_4>

000023ba <USART4_DMA_SendBuff>:
    23ba:	e37fd2ef          	jal	t0,1f0 <__riscv_save_0>
    23be:	842a                	mv	s0,a0
    23c0:	84ae                	mv	s1,a1
    23c2:	10020537          	lui	a0,0x10020
    23c6:	cf6fe0ef          	jal	ra,8bc <DMA_GetFlagStatus>
    23ca:	dd65                	beqz	a0,23c2 <USART4_DMA_SendBuff+0x8>
    23cc:	8626                	mv	a2,s1
    23ce:	85a2                	mv	a1,s0
    23d0:	67418513          	addi	a0,gp,1652 # 2000111c <uart4_tx_buffer>
    23d4:	2d1d                	jal	2a0a <memcpy>
    23d6:	40020437          	lui	s0,0x40020
    23da:	45840513          	addi	a0,s0,1112 # 40020458 <_eusrstack+0x20018458>
    23de:	b1efe0ef          	jal	ra,6fc <DMA_DeInit>
    23e2:	f8c18793          	addi	a5,gp,-116 # 20000a34 <DMA_InitStructure_USART4_TX>
    23e6:	45840513          	addi	a0,s0,1112
    23ea:	f8c18593          	addi	a1,gp,-116 # 20000a34 <DMA_InitStructure_USART4_TX>
    23ee:	c7c4                	sw	s1,12(a5)
    23f0:	c78fe0ef          	jal	ra,868 <DMA_Init>
    23f4:	4585                	li	a1,1
    23f6:	45840513          	addi	a0,s0,1112
    23fa:	ca6fe0ef          	jal	ra,8a0 <DMA_Cmd>
    23fe:	e17fd06f          	j	214 <__riscv_restore_0>

00002402 <UART4_IRQHandler>:
    2402:	1141                	addi	sp,sp,-16
    2404:	c622                	sw	s0,12(sp)
    2406:	40005437          	lui	s0,0x40005
    240a:	42400593          	li	a1,1060
    240e:	c0040513          	addi	a0,s0,-1024 # 40004c00 <_eusrstack+0x1fffcc00>
    2412:	c13fe0ef          	jal	ra,1024 <USART_GetITStatus>
    2416:	4785                	li	a5,1
    2418:	06f51363          	bne	a0,a5,247e <UART4_IRQHandler+0x7c>
    241c:	c0040513          	addi	a0,s0,-1024
    2420:	42400593          	li	a1,1060
    2424:	c3dfe0ef          	jal	ra,1060 <USART_ClearITPendingBit>
    2428:	c0045703          	lhu	a4,-1024(s0)
    242c:	c0445783          	lhu	a5,-1020(s0)
    2430:	40020437          	lui	s0,0x40020
    2434:	4581                	li	a1,0
    2436:	43040513          	addi	a0,s0,1072 # 40020430 <_eusrstack+0x20018430>
    243a:	c66fe0ef          	jal	ra,8a0 <DMA_Cmd>
    243e:	43040513          	addi	a0,s0,1072
    2442:	c72fe0ef          	jal	ra,8b4 <DMA_GetCurrDataCounter>
    2446:	40a00633          	neg	a2,a0
    244a:	0ff67613          	andi	a2,a2,255
    244e:	84c18ba3          	sb	a2,-1961(gp) # 200002ff <USART4_Revnum>
    2452:	20000793          	li	a5,512
    2456:	42f42a23          	sw	a5,1076(s0)
    245a:	47418593          	addi	a1,gp,1140 # 20000f1c <uart4_rx_buffer>
    245e:	46018513          	addi	a0,gp,1120 # 20000f08 <uart4_ringbuffer>
    2462:	ef8ff0ef          	jal	ra,1b5a <ringbuffer_write>
    2466:	43040413          	addi	s0,s0,1072
    246a:	4585                	li	a1,1
    246c:	8522                	mv	a0,s0
    246e:	c32fe0ef          	jal	ra,8a0 <DMA_Cmd>
    2472:	85a18793          	addi	a5,gp,-1958 # 20000302 <uart4_flag>
    2476:	2398                	lbu	a4,0(a5)
    2478:	00176713          	ori	a4,a4,1
    247c:	a398                	sb	a4,0(a5)
    247e:	4432                	lw	s0,12(sp)
    2480:	0141                	addi	sp,sp,16
    2482:	30200073          	mret

00002486 <USART4_Init>:
    2486:	d6bfd2ef          	jal	t0,1f0 <__riscv_save_0>
    248a:	db7ff0ef          	jal	ra,2240 <USART4_DMAConfig>
    248e:	20000593          	li	a1,512
    2492:	46018513          	addi	a0,gp,1120 # 20000f08 <uart4_ringbuffer>
    2496:	e96ff0ef          	jal	ra,1b2c <ringbuffer_init>
    249a:	d7bfd06f          	j	214 <__riscv_restore_0>

0000249e <uart4_printf>:
    249e:	dc010113          	addi	sp,sp,-576
    24a2:	20812c23          	sw	s0,536(sp)
    24a6:	40005437          	lui	s0,0x40005
    24aa:	20912a23          	sw	s1,532(sp)
    24ae:	20112e23          	sw	ra,540(sp)
    24b2:	84aa                	mv	s1,a0
    24b4:	22b12223          	sw	a1,548(sp)
    24b8:	22c12423          	sw	a2,552(sp)
    24bc:	22d12623          	sw	a3,556(sp)
    24c0:	22e12823          	sw	a4,560(sp)
    24c4:	22f12a23          	sw	a5,564(sp)
    24c8:	23012c23          	sw	a6,568(sp)
    24cc:	23112e23          	sw	a7,572(sp)
    24d0:	c0040413          	addi	s0,s0,-1024 # 40004c00 <_eusrstack+0x1fffcc00>
    24d4:	08000593          	li	a1,128
    24d8:	8522                	mv	a0,s0
    24da:	b41fe0ef          	jal	ra,101a <USART_GetFlagStatus>
    24de:	d97d                	beqz	a0,24d4 <uart4_printf+0x36>
    24e0:	1454                	addi	a3,sp,548
    24e2:	8626                	mv	a2,s1
    24e4:	20000593          	li	a1,512
    24e8:	0808                	addi	a0,sp,16
    24ea:	c636                	sw	a3,12(sp)
    24ec:	304010ef          	jal	ra,37f0 <vsniprintf>
    24f0:	0808                	addi	a0,sp,16
    24f2:	5bf000ef          	jal	ra,32b0 <strlen>
    24f6:	0ff57593          	andi	a1,a0,255
    24fa:	0808                	addi	a0,sp,16
    24fc:	ebfff0ef          	jal	ra,23ba <USART4_DMA_SendBuff>
    2500:	21c12083          	lw	ra,540(sp)
    2504:	21812403          	lw	s0,536(sp)
    2508:	21412483          	lw	s1,532(sp)
    250c:	24010113          	addi	sp,sp,576
    2510:	8082                	ret

00002512 <UART6_DMAConfig>:
    2512:	cc5fd2ef          	jal	t0,1d6 <__riscv_save_4>
    2516:	7179                	addi	sp,sp,-48
    2518:	8aaa                	mv	s5,a0
    251a:	4585                	li	a1,1
    251c:	4509                	li	a0,2
    251e:	ca02                	sw	zero,20(sp)
    2520:	cc02                	sw	zero,24(sp)
    2522:	ce02                	sw	zero,28(sp)
    2524:	d002                	sw	zero,32(sp)
    2526:	d202                	sw	zero,36(sp)
    2528:	d402                	sw	zero,40(sp)
    252a:	d602                	sw	zero,44(sp)
    252c:	ef8fe0ef          	jal	ra,c24 <RCC_AHBPeriphClockCmd>
    2530:	4585                	li	a1,1
    2532:	04000513          	li	a0,64
    2536:	f2afe0ef          	jal	ra,c60 <RCC_APB1PeriphClockCmd>
    253a:	4585                	li	a1,1
    253c:	4541                	li	a0,16
    253e:	f04fe0ef          	jal	ra,c42 <RCC_APB2PeriphClockCmd>
    2542:	400204b7          	lui	s1,0x40020
    2546:	46c48513          	addi	a0,s1,1132 # 4002046c <_eusrstack+0x2001846c>
    254a:	9b2fe0ef          	jal	ra,6fc <DMA_DeInit>
    254e:	20002737          	lui	a4,0x20002
    2552:	e8418793          	addi	a5,gp,-380 # 2000092c <DMA_InitStructure_UART6_TX>
    2556:	b3070713          	addi	a4,a4,-1232 # 20001b30 <uart6_tx_buffer>
    255a:	40002437          	lui	s0,0x40002
    255e:	c3d8                	sw	a4,4(a5)
    2560:	4741                	li	a4,16
    2562:	c798                	sw	a4,8(a5)
    2564:	80440a13          	addi	s4,s0,-2044 # 40001804 <_eusrstack+0x1fff9804>
    2568:	04000713          	li	a4,64
    256c:	08000993          	li	s3,128
    2570:	690d                	lui	s2,0x3
    2572:	e8418593          	addi	a1,gp,-380 # 2000092c <DMA_InitStructure_UART6_TX>
    2576:	46c48513          	addi	a0,s1,1132
    257a:	0147a023          	sw	s4,0(a5) # c0000 <_data_lma+0xb9b94>
    257e:	c7d8                	sw	a4,12(a5)
    2580:	0137aa23          	sw	s3,20(a5)
    2584:	0327a223          	sw	s2,36(a5)
    2588:	0007a823          	sw	zero,16(a5)
    258c:	0007ac23          	sw	zero,24(a5)
    2590:	0007ae23          	sw	zero,28(a5)
    2594:	0207a023          	sw	zero,32(a5)
    2598:	0207a423          	sw	zero,40(a5)
    259c:	accfe0ef          	jal	ra,868 <DMA_Init>
    25a0:	48048513          	addi	a0,s1,1152
    25a4:	958fe0ef          	jal	ra,6fc <DMA_DeInit>
    25a8:	20001737          	lui	a4,0x20001
    25ac:	e5818793          	addi	a5,gp,-424 # 20000900 <DMA_InitStructure_UART6_RX>
    25b0:	73070713          	addi	a4,a4,1840 # 20001730 <uart6_rx_buffer>
    25b4:	c3d8                	sw	a4,4(a5)
    25b6:	48048513          	addi	a0,s1,1152
    25ba:	40000713          	li	a4,1024
    25be:	e5818593          	addi	a1,gp,-424 # 20000900 <DMA_InitStructure_UART6_RX>
    25c2:	c7d8                	sw	a4,12(a5)
    25c4:	0147a023          	sw	s4,0(a5)
    25c8:	0137aa23          	sw	s3,20(a5)
    25cc:	0327a223          	sw	s2,36(a5)
    25d0:	0007a423          	sw	zero,8(a5)
    25d4:	0007a823          	sw	zero,16(a5)
    25d8:	0007ac23          	sw	zero,24(a5)
    25dc:	0007ae23          	sw	zero,28(a5)
    25e0:	0207a023          	sw	zero,32(a5)
    25e4:	0207a423          	sw	zero,40(a5)
    25e8:	a80fe0ef          	jal	ra,868 <DMA_Init>
    25ec:	4785                	li	a5,1
    25ee:	82fc                	sh	a5,20(sp)
    25f0:	478d                	li	a5,3
    25f2:	cc3e                	sw	a5,24(sp)
    25f4:	084c                	addi	a1,sp,20
    25f6:	47e1                	li	a5,24
    25f8:	40011537          	lui	a0,0x40011
    25fc:	ce3e                	sw	a5,28(sp)
    25fe:	b2cfe0ef          	jal	ra,92a <GPIO_Init>
    2602:	4789                	li	a5,2
    2604:	82fc                	sh	a5,20(sp)
    2606:	084c                	addi	a1,sp,20
    2608:	4791                	li	a5,4
    260a:	40011537          	lui	a0,0x40011
    260e:	ce3e                	sw	a5,28(sp)
    2610:	b1afe0ef          	jal	ra,92a <GPIO_Init>
    2614:	000c07b7          	lui	a5,0xc0
    2618:	100c                	addi	a1,sp,32
    261a:	80040513          	addi	a0,s0,-2048
    261e:	d43e                	sw	a5,40(sp)
    2620:	d056                	sw	s5,32(sp)
    2622:	d202                	sw	zero,36(sp)
    2624:	02011623          	sh	zero,44(sp)
    2628:	8fffe0ef          	jal	ra,f26 <USART_Init>
    262c:	4605                	li	a2,1
    262e:	80040513          	addi	a0,s0,-2048
    2632:	42400593          	li	a1,1060
    2636:	995fe0ef          	jal	ra,fca <USART_ITConfig>
    263a:	4585                	li	a1,1
    263c:	80040513          	addi	a0,s0,-2048
    2640:	975fe0ef          	jal	ra,fb4 <USART_Cmd>
    2644:	35700793          	li	a5,855
    2648:	867c                	sh	a5,12(sp)
    264a:	0068                	addi	a0,sp,12
    264c:	4785                	li	a5,1
    264e:	c83e                	sw	a5,16(sp)
    2650:	00010723          	sb	zero,14(sp)
    2654:	ba4fe0ef          	jal	ra,9f8 <NVIC_Init>
    2658:	46c48513          	addi	a0,s1,1132
    265c:	4585                	li	a1,1
    265e:	a42fe0ef          	jal	ra,8a0 <DMA_Cmd>
    2662:	48048513          	addi	a0,s1,1152
    2666:	4585                	li	a1,1
    2668:	a38fe0ef          	jal	ra,8a0 <DMA_Cmd>
    266c:	80040513          	addi	a0,s0,-2048
    2670:	4605                	li	a2,1
    2672:	04000593          	li	a1,64
    2676:	98bfe0ef          	jal	ra,1000 <USART_DMACmd>
    267a:	4605                	li	a2,1
    267c:	08000593          	li	a1,128
    2680:	80040513          	addi	a0,s0,-2048
    2684:	97dfe0ef          	jal	ra,1000 <USART_DMACmd>
    2688:	6145                	addi	sp,sp,48
    268a:	b81fd06f          	j	20a <__riscv_restore_4>

0000268e <UART6_IRQHandler>:
    268e:	1141                	addi	sp,sp,-16
    2690:	c622                	sw	s0,12(sp)
    2692:	40002437          	lui	s0,0x40002
    2696:	42400593          	li	a1,1060
    269a:	80040513          	addi	a0,s0,-2048 # 40001800 <_eusrstack+0x1fff9800>
    269e:	987fe0ef          	jal	ra,1024 <USART_GetITStatus>
    26a2:	4785                	li	a5,1
    26a4:	06f51763          	bne	a0,a5,2712 <UART6_IRQHandler+0x84>
    26a8:	80040513          	addi	a0,s0,-2048
    26ac:	42400593          	li	a1,1060
    26b0:	9b1fe0ef          	jal	ra,1060 <USART_ClearITPendingBit>
    26b4:	80045703          	lhu	a4,-2048(s0)
    26b8:	80445783          	lhu	a5,-2044(s0)
    26bc:	40020437          	lui	s0,0x40020
    26c0:	4581                	li	a1,0
    26c2:	48040513          	addi	a0,s0,1152 # 40020480 <_eusrstack+0x20018480>
    26c6:	9dafe0ef          	jal	ra,8a0 <DMA_Cmd>
    26ca:	48040513          	addi	a0,s0,1152
    26ce:	9e6fe0ef          	jal	ra,8b4 <DMA_GetCurrDataCounter>
    26d2:	40a00633          	neg	a2,a0
    26d6:	0ff67613          	andi	a2,a2,255
    26da:	84c18a23          	sb	a2,-1964(gp) # 200002fc <UART6_Revnum>
    26de:	200015b7          	lui	a1,0x20001
    26e2:	40000793          	li	a5,1024
    26e6:	20001537          	lui	a0,0x20001
    26ea:	48f42223          	sw	a5,1156(s0)
    26ee:	73058593          	addi	a1,a1,1840 # 20001730 <uart6_rx_buffer>
    26f2:	71c50513          	addi	a0,a0,1820 # 2000171c <uart6_ringbuffer>
    26f6:	c64ff0ef          	jal	ra,1b5a <ringbuffer_write>
    26fa:	48040413          	addi	s0,s0,1152
    26fe:	4585                	li	a1,1
    2700:	8522                	mv	a0,s0
    2702:	99efe0ef          	jal	ra,8a0 <DMA_Cmd>
    2706:	85b18793          	addi	a5,gp,-1957 # 20000303 <uart6_flag>
    270a:	2398                	lbu	a4,0(a5)
    270c:	00176713          	ori	a4,a4,1
    2710:	a398                	sb	a4,0(a5)
    2712:	4432                	lw	s0,12(sp)
    2714:	0141                	addi	sp,sp,16
    2716:	30200073          	mret

0000271a <UART6_Init>:
    271a:	ad7fd2ef          	jal	t0,1f0 <__riscv_save_0>
    271e:	df5ff0ef          	jal	ra,2512 <UART6_DMAConfig>
    2722:	20001537          	lui	a0,0x20001
    2726:	40000593          	li	a1,1024
    272a:	71c50513          	addi	a0,a0,1820 # 2000171c <uart6_ringbuffer>
    272e:	bfeff0ef          	jal	ra,1b2c <ringbuffer_init>
    2732:	ae3fd06f          	j	214 <__riscv_restore_0>

00002736 <uart_proc>:
    2736:	abbfd2ef          	jal	t0,1f0 <__riscv_save_0>
    273a:	85818793          	addi	a5,gp,-1960 # 20000300 <uart2_flag>
    273e:	2398                	lbu	a4,0(a5)
    2740:	7101                	addi	sp,sp,-512
    2742:	00177693          	andi	a3,a4,1
    2746:	c28d                	beqz	a3,2768 <uart_proc+0x32>
    2748:	9b79                	andi	a4,a4,-2
    274a:	20000613          	li	a2,512
    274e:	4581                	li	a1,0
    2750:	850a                	mv	a0,sp
    2752:	a398                	sb	a4,0(a5)
    2754:	acdfd0ef          	jal	ra,220 <memset>
    2758:	fb818793          	addi	a5,gp,-72 # 20000a60 <uart2_ringbuffer>
    275c:	47d0                	lw	a2,12(a5)
    275e:	858a                	mv	a1,sp
    2760:	fb818513          	addi	a0,gp,-72 # 20000a60 <uart2_ringbuffer>
    2764:	c34ff0ef          	jal	ra,1b98 <ringbuffer_read>
    2768:	85918793          	addi	a5,gp,-1959 # 20000301 <uart3_flag>
    276c:	2398                	lbu	a4,0(a5)
    276e:	00177693          	andi	a3,a4,1
    2772:	ca95                	beqz	a3,27a6 <uart_proc+0x70>
    2774:	9b79                	andi	a4,a4,-2
    2776:	10000613          	li	a2,256
    277a:	4581                	li	a1,0
    277c:	850a                	mv	a0,sp
    277e:	a398                	sb	a4,0(a5)
    2780:	aa1fd0ef          	jal	ra,220 <memset>
    2784:	24c18793          	addi	a5,gp,588 # 20000cf4 <uart3_ringbuffer>
    2788:	47d0                	lw	a2,12(a5)
    278a:	858a                	mv	a1,sp
    278c:	24c18513          	addi	a0,gp,588 # 20000cf4 <uart3_ringbuffer>
    2790:	c08ff0ef          	jal	ra,1b98 <ringbuffer_read>
    2794:	0ff57613          	andi	a2,a0,255
    2798:	20000537          	lui	a0,0x20000
    279c:	858a                	mv	a1,sp
    279e:	03450513          	addi	a0,a0,52 # 20000034 <uart3_parser>
    27a2:	afaff0ef          	jal	ra,1a9c <Parser_Process>
    27a6:	85a18793          	addi	a5,gp,-1958 # 20000302 <uart4_flag>
    27aa:	2398                	lbu	a4,0(a5)
    27ac:	00177693          	andi	a3,a4,1
    27b0:	ca95                	beqz	a3,27e4 <uart_proc+0xae>
    27b2:	9b79                	andi	a4,a4,-2
    27b4:	20000613          	li	a2,512
    27b8:	4581                	li	a1,0
    27ba:	850a                	mv	a0,sp
    27bc:	a398                	sb	a4,0(a5)
    27be:	a63fd0ef          	jal	ra,220 <memset>
    27c2:	46018793          	addi	a5,gp,1120 # 20000f08 <uart4_ringbuffer>
    27c6:	47d0                	lw	a2,12(a5)
    27c8:	858a                	mv	a1,sp
    27ca:	46018513          	addi	a0,gp,1120 # 20000f08 <uart4_ringbuffer>
    27ce:	bcaff0ef          	jal	ra,1b98 <ringbuffer_read>
    27d2:	0ff57613          	andi	a2,a0,255
    27d6:	20000537          	lui	a0,0x20000
    27da:	858a                	mv	a1,sp
    27dc:	04050513          	addi	a0,a0,64 # 20000040 <uart4_parser>
    27e0:	abcff0ef          	jal	ra,1a9c <Parser_Process>
    27e4:	85b18793          	addi	a5,gp,-1957 # 20000303 <uart6_flag>
    27e8:	2398                	lbu	a4,0(a5)
    27ea:	00177693          	andi	a3,a4,1
    27ee:	ce8d                	beqz	a3,2828 <uart_proc+0xf2>
    27f0:	9b79                	andi	a4,a4,-2
    27f2:	20001537          	lui	a0,0x20001
    27f6:	a398                	sb	a4,0(a5)
    27f8:	71c50793          	addi	a5,a0,1820 # 2000171c <uart6_ringbuffer>
    27fc:	47d0                	lw	a2,12(a5)
    27fe:	20001437          	lui	s0,0x20001
    2802:	31c40593          	addi	a1,s0,796 # 2000131c <uart6_rb>
    2806:	71c50513          	addi	a0,a0,1820
    280a:	b8eff0ef          	jal	ra,1b98 <ringbuffer_read>
    280e:	0ff57593          	andi	a1,a0,255
    2812:	31c40513          	addi	a0,s0,796
    2816:	e3eff0ef          	jal	ra,1e54 <USART2_DMA_SendBuff>
    281a:	40000613          	li	a2,1024
    281e:	4581                	li	a1,0
    2820:	31c40513          	addi	a0,s0,796
    2824:	9fdfd0ef          	jal	ra,220 <memset>
    2828:	20010113          	addi	sp,sp,512
    282c:	9e9fd06f          	j	214 <__riscv_restore_0>

00002830 <gmtime>:
    2830:	1141                	addi	sp,sp,-16
    2832:	80c18793          	addi	a5,gp,-2036 # 200002b4 <_impure_ptr>
    2836:	c422                	sw	s0,8(sp)
    2838:	4380                	lw	s0,0(a5)
    283a:	c226                	sw	s1,4(sp)
    283c:	c606                	sw	ra,12(sp)
    283e:	5c5c                	lw	a5,60(s0)
    2840:	84aa                	mv	s1,a0
    2842:	e789                	bnez	a5,284c <gmtime+0x1c>
    2844:	02400513          	li	a0,36
    2848:	227d                	jal	29f6 <malloc>
    284a:	dc48                	sw	a0,60(s0)
    284c:	5c4c                	lw	a1,60(s0)
    284e:	4422                	lw	s0,8(sp)
    2850:	40b2                	lw	ra,12(sp)
    2852:	8526                	mv	a0,s1
    2854:	4492                	lw	s1,4(sp)
    2856:	0141                	addi	sp,sp,16
    2858:	a009                	j	285a <gmtime_r>

0000285a <gmtime_r>:
    285a:	1101                	addi	sp,sp,-32
    285c:	c84a                	sw	s2,16(sp)
    285e:	c64e                	sw	s3,12(sp)
    2860:	00052903          	lw	s2,0(a0)
    2864:	00452983          	lw	s3,4(a0)
    2868:	6655                	lui	a2,0x15
    286a:	cc22                	sw	s0,24(sp)
    286c:	18060613          	addi	a2,a2,384 # 15180 <_data_lma+0xed14>
    2870:	4681                	li	a3,0
    2872:	842e                	mv	s0,a1
    2874:	854a                	mv	a0,s2
    2876:	85ce                	mv	a1,s3
    2878:	ca26                	sw	s1,20(sp)
    287a:	ce06                	sw	ra,28(sp)
    287c:	7e5020ef          	jal	ra,5860 <__divdi3>
    2880:	6655                	lui	a2,0x15
    2882:	84aa                	mv	s1,a0
    2884:	18060613          	addi	a2,a2,384 # 15180 <_data_lma+0xed14>
    2888:	4681                	li	a3,0
    288a:	854a                	mv	a0,s2
    288c:	85ce                	mv	a1,s3
    288e:	3a6030ef          	jal	ra,5c34 <__moddi3>
    2892:	10054f63          	bltz	a0,29b0 <gmtime_r+0x156>
    2896:	000b05b7          	lui	a1,0xb0
    289a:	a6c58593          	addi	a1,a1,-1428 # afa6c <_data_lma+0xa9600>
    289e:	6785                	lui	a5,0x1
    28a0:	e1078793          	addi	a5,a5,-496 # e10 <SPI_I2S_SendData+0x2>
    28a4:	02f54733          	div	a4,a0,a5
    28a8:	00b486b3          	add	a3,s1,a1
    28ac:	02f56533          	rem	a0,a0,a5
    28b0:	03c00793          	li	a5,60
    28b4:	c418                	sw	a4,8(s0)
    28b6:	02f54733          	div	a4,a0,a5
    28ba:	02f56533          	rem	a0,a0,a5
    28be:	c058                	sw	a4,4(s0)
    28c0:	00368793          	addi	a5,a3,3
    28c4:	471d                	li	a4,7
    28c6:	02e7e7b3          	rem	a5,a5,a4
    28ca:	c008                	sw	a0,0(s0)
    28cc:	0007d363          	bgez	a5,28d2 <gmtime_r+0x78>
    28d0:	079d                	addi	a5,a5,7
    28d2:	cc1c                	sw	a5,24(s0)
    28d4:	0e06d763          	bgez	a3,29c2 <gmtime_r+0x168>
    28d8:	fffdc7b7          	lui	a5,0xfffdc
    28dc:	55078793          	addi	a5,a5,1360 # fffdc550 <_eusrstack+0xdffd4550>
    28e0:	00024737          	lui	a4,0x24
    28e4:	97b6                	add	a5,a5,a3
    28e6:	ab170713          	addi	a4,a4,-1359 # 23ab1 <_data_lma+0x1d645>
    28ea:	02e7c7b3          	div	a5,a5,a4
    28ee:	fffdc5b7          	lui	a1,0xfffdc
    28f2:	54f58593          	addi	a1,a1,1359 # fffdc54f <_eusrstack+0xdffd454f>
    28f6:	6525                	lui	a0,0x9
    28f8:	eac50613          	addi	a2,a0,-340 # 8eac <_data_lma+0x2a40>
    28fc:	5b400813          	li	a6,1460
    2900:	16d00713          	li	a4,365
    2904:	e9450513          	addi	a0,a0,-364
    2908:	02b785b3          	mul	a1,a5,a1
    290c:	95b6                	add	a1,a1,a3
    290e:	02c5d633          	divu	a2,a1,a2
    2912:	0305d6b3          	divu	a3,a1,a6
    2916:	962e                	add	a2,a2,a1
    2918:	8e15                	sub	a2,a2,a3
    291a:	000246b7          	lui	a3,0x24
    291e:	ab068693          	addi	a3,a3,-1360 # 23ab0 <_data_lma+0x1d644>
    2922:	02d5d6b3          	divu	a3,a1,a3
    2926:	40d606b3          	sub	a3,a2,a3
    292a:	02e6d633          	divu	a2,a3,a4
    292e:	02a6d533          	divu	a0,a3,a0
    2932:	0306d6b3          	divu	a3,a3,a6
    2936:	95aa                	add	a1,a1,a0
    2938:	02e60733          	mul	a4,a2,a4
    293c:	40d586b3          	sub	a3,a1,a3
    2940:	4595                	li	a1,5
    2942:	40e68733          	sub	a4,a3,a4
    2946:	02b70533          	mul	a0,a4,a1
    294a:	09900693          	li	a3,153
    294e:	00170813          	addi	a6,a4,1
    2952:	0509                	addi	a0,a0,2
    2954:	02d558b3          	divu	a7,a0,a3
    2958:	02d886b3          	mul	a3,a7,a3
    295c:	0689                	addi	a3,a3,2
    295e:	02b6d6b3          	divu	a3,a3,a1
    2962:	4589                	li	a1,2
    2964:	40d806b3          	sub	a3,a6,a3
    2968:	5f900813          	li	a6,1529
    296c:	00a87363          	bgeu	a6,a0,2972 <gmtime_r+0x118>
    2970:	55d9                	li	a1,-10
    2972:	19000513          	li	a0,400
    2976:	02a787b3          	mul	a5,a5,a0
    297a:	95c6                	add	a1,a1,a7
    297c:	0025b513          	sltiu	a0,a1,2
    2980:	97b2                	add	a5,a5,a2
    2982:	97aa                	add	a5,a5,a0
    2984:	13100513          	li	a0,305
    2988:	04e57463          	bgeu	a0,a4,29d0 <gmtime_r+0x176>
    298c:	ece70713          	addi	a4,a4,-306
    2990:	89478793          	addi	a5,a5,-1900
    2994:	cc58                	sw	a4,28(s0)
    2996:	c85c                	sw	a5,20(s0)
    2998:	c80c                	sw	a1,16(s0)
    299a:	c454                	sw	a3,12(s0)
    299c:	02042023          	sw	zero,32(s0)
    29a0:	8522                	mv	a0,s0
    29a2:	40f2                	lw	ra,28(sp)
    29a4:	4462                	lw	s0,24(sp)
    29a6:	44d2                	lw	s1,20(sp)
    29a8:	4942                	lw	s2,16(sp)
    29aa:	49b2                	lw	s3,12(sp)
    29ac:	6105                	addi	sp,sp,32
    29ae:	8082                	ret
    29b0:	67d5                	lui	a5,0x15
    29b2:	18078793          	addi	a5,a5,384 # 15180 <_data_lma+0xed14>
    29b6:	000b05b7          	lui	a1,0xb0
    29ba:	953e                	add	a0,a0,a5
    29bc:	a6b58593          	addi	a1,a1,-1429 # afa6b <_data_lma+0xa95ff>
    29c0:	bdf9                	j	289e <gmtime_r+0x44>
    29c2:	000247b7          	lui	a5,0x24
    29c6:	ab178793          	addi	a5,a5,-1359 # 23ab1 <_data_lma+0x1d645>
    29ca:	02f6c7b3          	div	a5,a3,a5
    29ce:	b705                	j	28ee <gmtime_r+0x94>
    29d0:	00367513          	andi	a0,a2,3
    29d4:	e519                	bnez	a0,29e2 <gmtime_r+0x188>
    29d6:	06400513          	li	a0,100
    29da:	02a67533          	remu	a0,a2,a0
    29de:	4805                	li	a6,1
    29e0:	e519                	bnez	a0,29ee <gmtime_r+0x194>
    29e2:	19000513          	li	a0,400
    29e6:	02a67633          	remu	a2,a2,a0
    29ea:	00163813          	seqz	a6,a2
    29ee:	03b70713          	addi	a4,a4,59
    29f2:	9742                	add	a4,a4,a6
    29f4:	bf71                	j	2990 <gmtime_r+0x136>

000029f6 <malloc>:
    29f6:	80c18793          	addi	a5,gp,-2036 # 200002b4 <_impure_ptr>
    29fa:	85aa                	mv	a1,a0
    29fc:	4388                	lw	a0,0(a5)
    29fe:	a559                	j	3084 <_malloc_r>

00002a00 <free>:
    2a00:	80c18793          	addi	a5,gp,-2036 # 200002b4 <_impure_ptr>
    2a04:	85aa                	mv	a1,a0
    2a06:	4388                	lw	a0,0(a5)
    2a08:	abd1                	j	2fdc <_free_r>

00002a0a <memcpy>:
    2a0a:	00a5c7b3          	xor	a5,a1,a0
    2a0e:	8b8d                	andi	a5,a5,3
    2a10:	00c50733          	add	a4,a0,a2
    2a14:	e781                	bnez	a5,2a1c <memcpy+0x12>
    2a16:	478d                	li	a5,3
    2a18:	00c7ed63          	bltu	a5,a2,2a32 <memcpy+0x28>
    2a1c:	87aa                	mv	a5,a0
    2a1e:	08e57e63          	bgeu	a0,a4,2aba <memcpy+0xb0>
    2a22:	2194                	lbu	a3,0(a1)
    2a24:	0785                	addi	a5,a5,1
    2a26:	0585                	addi	a1,a1,1
    2a28:	fed78fa3          	sb	a3,-1(a5)
    2a2c:	fee7ebe3          	bltu	a5,a4,2a22 <memcpy+0x18>
    2a30:	8082                	ret
    2a32:	00357693          	andi	a3,a0,3
    2a36:	87aa                	mv	a5,a0
    2a38:	ca89                	beqz	a3,2a4a <memcpy+0x40>
    2a3a:	2194                	lbu	a3,0(a1)
    2a3c:	0785                	addi	a5,a5,1
    2a3e:	0585                	addi	a1,a1,1
    2a40:	fed78fa3          	sb	a3,-1(a5)
    2a44:	0037f693          	andi	a3,a5,3
    2a48:	bfc5                	j	2a38 <memcpy+0x2e>
    2a4a:	ffc77693          	andi	a3,a4,-4
    2a4e:	fe068613          	addi	a2,a3,-32
    2a52:	06c7f063          	bgeu	a5,a2,2ab2 <memcpy+0xa8>
    2a56:	0005a383          	lw	t2,0(a1)
    2a5a:	0045a283          	lw	t0,4(a1)
    2a5e:	0085af83          	lw	t6,8(a1)
    2a62:	00c5af03          	lw	t5,12(a1)
    2a66:	0105ae83          	lw	t4,16(a1)
    2a6a:	0145ae03          	lw	t3,20(a1)
    2a6e:	0185a303          	lw	t1,24(a1)
    2a72:	01c5a883          	lw	a7,28(a1)
    2a76:	02458593          	addi	a1,a1,36
    2a7a:	0077a023          	sw	t2,0(a5)
    2a7e:	ffc5a803          	lw	a6,-4(a1)
    2a82:	0057a223          	sw	t0,4(a5)
    2a86:	01f7a423          	sw	t6,8(a5)
    2a8a:	01e7a623          	sw	t5,12(a5)
    2a8e:	01d7a823          	sw	t4,16(a5)
    2a92:	01c7aa23          	sw	t3,20(a5)
    2a96:	0067ac23          	sw	t1,24(a5)
    2a9a:	0117ae23          	sw	a7,28(a5)
    2a9e:	02478793          	addi	a5,a5,36
    2aa2:	ff07ae23          	sw	a6,-4(a5)
    2aa6:	b775                	j	2a52 <memcpy+0x48>
    2aa8:	4190                	lw	a2,0(a1)
    2aaa:	0791                	addi	a5,a5,4
    2aac:	0591                	addi	a1,a1,4
    2aae:	fec7ae23          	sw	a2,-4(a5)
    2ab2:	fed7ebe3          	bltu	a5,a3,2aa8 <memcpy+0x9e>
    2ab6:	f6e7e6e3          	bltu	a5,a4,2a22 <memcpy+0x18>
    2aba:	8082                	ret

00002abc <validate_structure>:
    2abc:	1101                	addi	sp,sp,-32
    2abe:	cc22                	sw	s0,24(sp)
    2ac0:	842a                	mv	s0,a0
    2ac2:	4108                	lw	a0,0(a0)
    2ac4:	ce06                	sw	ra,28(sp)
    2ac6:	03b00793          	li	a5,59
    2aca:	02a7f063          	bgeu	a5,a0,2aea <validate_structure+0x2e>
    2ace:	03c00593          	li	a1,60
    2ad2:	6eb000ef          	jal	ra,39bc <div>
    2ad6:	c42a                	sw	a0,8(sp)
    2ad8:	405c                	lw	a5,4(s0)
    2ada:	46a2                	lw	a3,8(sp)
    2adc:	c62e                	sw	a1,12(sp)
    2ade:	4732                	lw	a4,12(sp)
    2ae0:	97b6                	add	a5,a5,a3
    2ae2:	c05c                	sw	a5,4(s0)
    2ae4:	0c074163          	bltz	a4,2ba6 <validate_structure+0xea>
    2ae8:	c018                	sw	a4,0(s0)
    2aea:	4048                	lw	a0,4(s0)
    2aec:	03b00793          	li	a5,59
    2af0:	02a7f063          	bgeu	a5,a0,2b10 <validate_structure+0x54>
    2af4:	03c00593          	li	a1,60
    2af8:	6c5000ef          	jal	ra,39bc <div>
    2afc:	c42a                	sw	a0,8(sp)
    2afe:	441c                	lw	a5,8(s0)
    2b00:	46a2                	lw	a3,8(sp)
    2b02:	c62e                	sw	a1,12(sp)
    2b04:	4732                	lw	a4,12(sp)
    2b06:	97b6                	add	a5,a5,a3
    2b08:	c41c                	sw	a5,8(s0)
    2b0a:	0a074463          	bltz	a4,2bb2 <validate_structure+0xf6>
    2b0e:	c058                	sw	a4,4(s0)
    2b10:	4408                	lw	a0,8(s0)
    2b12:	47dd                	li	a5,23
    2b14:	00a7ff63          	bgeu	a5,a0,2b32 <validate_structure+0x76>
    2b18:	45e1                	li	a1,24
    2b1a:	6a3000ef          	jal	ra,39bc <div>
    2b1e:	c42a                	sw	a0,8(sp)
    2b20:	445c                	lw	a5,12(s0)
    2b22:	46a2                	lw	a3,8(sp)
    2b24:	c62e                	sw	a1,12(sp)
    2b26:	4732                	lw	a4,12(sp)
    2b28:	97b6                	add	a5,a5,a3
    2b2a:	c45c                	sw	a5,12(s0)
    2b2c:	08074963          	bltz	a4,2bbe <validate_structure+0x102>
    2b30:	c418                	sw	a4,8(s0)
    2b32:	4808                	lw	a0,16(s0)
    2b34:	47ad                	li	a5,11
    2b36:	00a7ff63          	bgeu	a5,a0,2b54 <validate_structure+0x98>
    2b3a:	45b1                	li	a1,12
    2b3c:	681000ef          	jal	ra,39bc <div>
    2b40:	c42a                	sw	a0,8(sp)
    2b42:	485c                	lw	a5,20(s0)
    2b44:	46a2                	lw	a3,8(sp)
    2b46:	c62e                	sw	a1,12(sp)
    2b48:	4732                	lw	a4,12(sp)
    2b4a:	97b6                	add	a5,a5,a3
    2b4c:	c85c                	sw	a5,20(s0)
    2b4e:	06074d63          	bltz	a4,2bc8 <validate_structure+0x10c>
    2b52:	c818                	sw	a4,16(s0)
    2b54:	4858                	lw	a4,20(s0)
    2b56:	47f1                	li	a5,28
    2b58:	00377693          	andi	a3,a4,3
    2b5c:	e285                	bnez	a3,2b7c <validate_structure+0xc0>
    2b5e:	06400693          	li	a3,100
    2b62:	02d766b3          	rem	a3,a4,a3
    2b66:	47f5                	li	a5,29
    2b68:	ea91                	bnez	a3,2b7c <validate_structure+0xc0>
    2b6a:	76c70793          	addi	a5,a4,1900
    2b6e:	19000713          	li	a4,400
    2b72:	02e7e7b3          	rem	a5,a5,a4
    2b76:	0017b793          	seqz	a5,a5
    2b7a:	07f1                	addi	a5,a5,28
    2b7c:	4458                	lw	a4,12(s0)
    2b7e:	04e04a63          	bgtz	a4,2bd2 <validate_structure+0x116>
    2b82:	55fd                	li	a1,-1
    2b84:	452d                	li	a0,11
    2b86:	06400813          	li	a6,100
    2b8a:	19000893          	li	a7,400
    2b8e:	4305                	li	t1,1
    2b90:	00003e17          	auipc	t3,0x3
    2b94:	4f8e0e13          	addi	t3,t3,1272 # 6088 <DAYS_IN_MONTH>
    2b98:	4450                	lw	a2,12(s0)
    2b9a:	06c05163          	blez	a2,2bfc <validate_structure+0x140>
    2b9e:	40f2                	lw	ra,28(sp)
    2ba0:	4462                	lw	s0,24(sp)
    2ba2:	6105                	addi	sp,sp,32
    2ba4:	8082                	ret
    2ba6:	03c70713          	addi	a4,a4,60
    2baa:	17fd                	addi	a5,a5,-1
    2bac:	c018                	sw	a4,0(s0)
    2bae:	c05c                	sw	a5,4(s0)
    2bb0:	bf2d                	j	2aea <validate_structure+0x2e>
    2bb2:	03c70713          	addi	a4,a4,60
    2bb6:	17fd                	addi	a5,a5,-1
    2bb8:	c058                	sw	a4,4(s0)
    2bba:	c41c                	sw	a5,8(s0)
    2bbc:	bf91                	j	2b10 <validate_structure+0x54>
    2bbe:	0761                	addi	a4,a4,24
    2bc0:	17fd                	addi	a5,a5,-1
    2bc2:	c418                	sw	a4,8(s0)
    2bc4:	c45c                	sw	a5,12(s0)
    2bc6:	b7b5                	j	2b32 <validate_structure+0x76>
    2bc8:	0731                	addi	a4,a4,12
    2bca:	17fd                	addi	a5,a5,-1
    2bcc:	c818                	sw	a4,16(s0)
    2bce:	c85c                	sw	a5,20(s0)
    2bd0:	b751                	j	2b54 <validate_structure+0x98>
    2bd2:	4585                	li	a1,1
    2bd4:	00003517          	auipc	a0,0x3
    2bd8:	4b450513          	addi	a0,a0,1204 # 6088 <DAYS_IN_MONTH>
    2bdc:	4831                	li	a6,12
    2bde:	06400893          	li	a7,100
    2be2:	19000313          	li	t1,400
    2be6:	4818                	lw	a4,16(s0)
    2be8:	4454                	lw	a3,12(s0)
    2bea:	04b70d63          	beq	a4,a1,2c44 <validate_structure+0x188>
    2bee:	00271613          	slli	a2,a4,0x2
    2bf2:	962a                	add	a2,a2,a0
    2bf4:	4210                	lw	a2,0(a2)
    2bf6:	04d64a63          	blt	a2,a3,2c4a <validate_structure+0x18e>
    2bfa:	b755                	j	2b9e <validate_structure+0xe2>
    2bfc:	4818                	lw	a4,16(s0)
    2bfe:	177d                	addi	a4,a4,-1
    2c00:	c818                	sw	a4,16(s0)
    2c02:	02b71763          	bne	a4,a1,2c30 <validate_structure+0x174>
    2c06:	4858                	lw	a4,20(s0)
    2c08:	c808                	sw	a0,16(s0)
    2c0a:	47f1                	li	a5,28
    2c0c:	fff70693          	addi	a3,a4,-1
    2c10:	c854                	sw	a3,20(s0)
    2c12:	0036fe93          	andi	t4,a3,3
    2c16:	000e9d63          	bnez	t4,2c30 <validate_structure+0x174>
    2c1a:	0306e6b3          	rem	a3,a3,a6
    2c1e:	47f5                	li	a5,29
    2c20:	ea81                	bnez	a3,2c30 <validate_structure+0x174>
    2c22:	76b70793          	addi	a5,a4,1899
    2c26:	0317e7b3          	rem	a5,a5,a7
    2c2a:	0017b793          	seqz	a5,a5
    2c2e:	07f1                	addi	a5,a5,28
    2c30:	4818                	lw	a4,16(s0)
    2c32:	86be                	mv	a3,a5
    2c34:	00670563          	beq	a4,t1,2c3e <validate_structure+0x182>
    2c38:	070a                	slli	a4,a4,0x2
    2c3a:	9772                	add	a4,a4,t3
    2c3c:	4314                	lw	a3,0(a4)
    2c3e:	9636                	add	a2,a2,a3
    2c40:	c450                	sw	a2,12(s0)
    2c42:	bf99                	j	2b98 <validate_structure+0xdc>
    2c44:	f4d7dde3          	bge	a5,a3,2b9e <validate_structure+0xe2>
    2c48:	863e                	mv	a2,a5
    2c4a:	8e91                	sub	a3,a3,a2
    2c4c:	0705                	addi	a4,a4,1
    2c4e:	c454                	sw	a3,12(s0)
    2c50:	c818                	sw	a4,16(s0)
    2c52:	f9071ae3          	bne	a4,a6,2be6 <validate_structure+0x12a>
    2c56:	4858                	lw	a4,20(s0)
    2c58:	00042823          	sw	zero,16(s0)
    2c5c:	47f1                	li	a5,28
    2c5e:	00170693          	addi	a3,a4,1
    2c62:	c854                	sw	a3,20(s0)
    2c64:	0036f613          	andi	a2,a3,3
    2c68:	fe3d                	bnez	a2,2be6 <validate_structure+0x12a>
    2c6a:	0316e6b3          	rem	a3,a3,a7
    2c6e:	47f5                	li	a5,29
    2c70:	fabd                	bnez	a3,2be6 <validate_structure+0x12a>
    2c72:	76d70793          	addi	a5,a4,1901
    2c76:	0267e7b3          	rem	a5,a5,t1
    2c7a:	0017b793          	seqz	a5,a5
    2c7e:	07f1                	addi	a5,a5,28
    2c80:	b79d                	j	2be6 <validate_structure+0x12a>

00002c82 <mktime>:
    2c82:	7179                	addi	sp,sp,-48
    2c84:	d606                	sw	ra,44(sp)
    2c86:	d422                	sw	s0,40(sp)
    2c88:	d226                	sw	s1,36(sp)
    2c8a:	ce4e                	sw	s3,28(sp)
    2c8c:	84aa                	mv	s1,a0
    2c8e:	cc52                	sw	s4,24(sp)
    2c90:	c85a                	sw	s6,16(sp)
    2c92:	c65e                	sw	s7,12(sp)
    2c94:	d04a                	sw	s2,32(sp)
    2c96:	ca56                	sw	s5,20(sp)
    2c98:	c462                	sw	s8,8(sp)
    2c9a:	c266                	sw	s9,4(sp)
    2c9c:	c06a                	sw	s10,0(sp)
    2c9e:	1b2010ef          	jal	ra,3e50 <__gettzinfo>
    2ca2:	8baa                	mv	s7,a0
    2ca4:	8526                	mv	a0,s1
    2ca6:	e17ff0ef          	jal	ra,2abc <validate_structure>
    2caa:	40dc                	lw	a5,4(s1)
    2cac:	03c00993          	li	s3,60
    2cb0:	6705                	lui	a4,0x1
    2cb2:	02f989b3          	mul	s3,s3,a5
    2cb6:	409c                	lw	a5,0(s1)
    2cb8:	e1070713          	addi	a4,a4,-496 # e10 <SPI_I2S_SendData+0x2>
    2cbc:	44c0                	lw	s0,12(s1)
    2cbe:	0144ab03          	lw	s6,20(s1)
    2cc2:	147d                	addi	s0,s0,-1
    2cc4:	99be                	add	s3,s3,a5
    2cc6:	449c                	lw	a5,8(s1)
    2cc8:	02e787b3          	mul	a5,a5,a4
    2ccc:	4898                	lw	a4,16(s1)
    2cce:	00271693          	slli	a3,a4,0x2
    2cd2:	99be                	add	s3,s3,a5
    2cd4:	00003797          	auipc	a5,0x3
    2cd8:	3e478793          	addi	a5,a5,996 # 60b8 <_DAYS_BEFORE_MONTH>
    2cdc:	97b6                	add	a5,a5,a3
    2cde:	439c                	lw	a5,0(a5)
    2ce0:	41f9da13          	srai	s4,s3,0x1f
    2ce4:	943e                	add	s0,s0,a5
    2ce6:	4785                	li	a5,1
    2ce8:	02e7d263          	bge	a5,a4,2d0c <mktime+0x8a>
    2cec:	003b7793          	andi	a5,s6,3
    2cf0:	ef91                	bnez	a5,2d0c <mktime+0x8a>
    2cf2:	06400793          	li	a5,100
    2cf6:	02fb67b3          	rem	a5,s6,a5
    2cfa:	eb81                	bnez	a5,2d0a <mktime+0x88>
    2cfc:	76cb0793          	addi	a5,s6,1900
    2d00:	19000713          	li	a4,400
    2d04:	02e7e7b3          	rem	a5,a5,a4
    2d08:	e391                	bnez	a5,2d0c <mktime+0x8a>
    2d0a:	0405                	addi	s0,s0,1
    2d0c:	6709                	lui	a4,0x2
    2d0e:	71070713          	addi	a4,a4,1808 # 2710 <UART6_IRQHandler+0x82>
    2d12:	6795                	lui	a5,0x5
    2d14:	ccc0                	sw	s0,28(s1)
    2d16:	975a                	add	a4,a4,s6
    2d18:	e2078793          	addi	a5,a5,-480 # 4e20 <_sungetc_r+0x36>
    2d1c:	2ae7ed63          	bltu	a5,a4,2fd6 <mktime+0x354>
    2d20:	04600793          	li	a5,70
    2d24:	1167df63          	bge	a5,s6,2e42 <mktime+0x1c0>
    2d28:	04600713          	li	a4,70
    2d2c:	06400613          	li	a2,100
    2d30:	19000593          	li	a1,400
    2d34:	00377693          	andi	a3,a4,3
    2d38:	16d00793          	li	a5,365
    2d3c:	ee91                	bnez	a3,2d58 <mktime+0xd6>
    2d3e:	02c766b3          	rem	a3,a4,a2
    2d42:	16e00793          	li	a5,366
    2d46:	ea89                	bnez	a3,2d58 <mktime+0xd6>
    2d48:	76c70793          	addi	a5,a4,1900
    2d4c:	02b7e7b3          	rem	a5,a5,a1
    2d50:	0017b793          	seqz	a5,a5
    2d54:	16d78793          	addi	a5,a5,365
    2d58:	0705                	addi	a4,a4,1
    2d5a:	943e                	add	s0,s0,a5
    2d5c:	fceb1ce3          	bne	s6,a4,2d34 <mktime+0xb2>
    2d60:	67d5                	lui	a5,0x15
    2d62:	18078793          	addi	a5,a5,384 # 15180 <_data_lma+0xed14>
    2d66:	02f40733          	mul	a4,s0,a5
    2d6a:	02f417b3          	mulh	a5,s0,a5
    2d6e:	99ba                	add	s3,s3,a4
    2d70:	00e9b733          	sltu	a4,s3,a4
    2d74:	894e                	mv	s2,s3
    2d76:	97d2                	add	a5,a5,s4
    2d78:	00f70a33          	add	s4,a4,a5
    2d7c:	254d                	jal	341e <__tz_lock>
    2d7e:	2555                	jal	3422 <_tzset_unlocked>
    2d80:	86818793          	addi	a5,gp,-1944 # 20000310 <_daylight>
    2d84:	0007ac03          	lw	s8,0(a5)
    2d88:	8ad2                	mv	s5,s4
    2d8a:	0a0c0263          	beqz	s8,2e2e <mktime+0x1ac>
    2d8e:	48c8                	lw	a0,20(s1)
    2d90:	0204ad03          	lw	s10,32(s1)
    2d94:	76c50513          	addi	a0,a0,1900
    2d98:	8cea                	mv	s9,s10
    2d9a:	01a05363          	blez	s10,2da0 <mktime+0x11e>
    2d9e:	4c85                	li	s9,1
    2da0:	004ba783          	lw	a5,4(s7)
    2da4:	10a79263          	bne	a5,a0,2ea8 <mktime+0x226>
    2da8:	048ba683          	lw	a3,72(s7)
    2dac:	028ba803          	lw	a6,40(s7)
    2db0:	04cba603          	lw	a2,76(s7)
    2db4:	050ba503          	lw	a0,80(s7)
    2db8:	41f85793          	srai	a5,a6,0x1f
    2dbc:	410688b3          	sub	a7,a3,a6
    2dc0:	0116b733          	sltu	a4,a3,a7
    2dc4:	40f607b3          	sub	a5,a2,a5
    2dc8:	8f99                	sub	a5,a5,a4
    2dca:	41f55313          	srai	t1,a0,0x1f
    2dce:	02fa4363          	blt	s4,a5,2df4 <mktime+0x172>
    2dd2:	01479463          	bne	a5,s4,2dda <mktime+0x158>
    2dd6:	0119ef63          	bltu	s3,a7,2df4 <mktime+0x172>
    2dda:	40a68733          	sub	a4,a3,a0
    2dde:	00e6b5b3          	sltu	a1,a3,a4
    2de2:	406606b3          	sub	a3,a2,t1
    2de6:	8e8d                	sub	a3,a3,a1
    2de8:	0cda4363          	blt	s4,a3,2eae <mktime+0x22c>
    2dec:	01469463          	bne	a3,s4,2df4 <mktime+0x172>
    2df0:	0ae9ef63          	bltu	s3,a4,2eae <mktime+0x22c>
    2df4:	020ba683          	lw	a3,32(s7)
    2df8:	024ba703          	lw	a4,36(s7)
    2dfc:	40a68633          	sub	a2,a3,a0
    2e00:	00c6b6b3          	sltu	a3,a3,a2
    2e04:	40670733          	sub	a4,a4,t1
    2e08:	8f15                	sub	a4,a4,a3
    2e0a:	000ba683          	lw	a3,0(s7)
    2e0e:	c2d5                	beqz	a3,2eb2 <mktime+0x230>
    2e10:	00ea4c63          	blt	s4,a4,2e28 <mktime+0x1a6>
    2e14:	01471463          	bne	a4,s4,2e1c <mktime+0x19a>
    2e18:	00c9e863          	bltu	s3,a2,2e28 <mktime+0x1a6>
    2e1c:	0afa4163          	blt	s4,a5,2ebe <mktime+0x23c>
    2e20:	01479463          	bne	a5,s4,2e28 <mktime+0x1a6>
    2e24:	0919ed63          	bltu	s3,a7,2ebe <mktime+0x23c>
    2e28:	4c01                	li	s8,0
    2e2a:	080d5d63          	bgez	s10,2ec4 <mktime+0x242>
    2e2e:	028ba583          	lw	a1,40(s7)
    2e32:	41f5d993          	srai	s3,a1,0x1f
    2e36:	992e                	add	s2,s2,a1
    2e38:	00b935b3          	sltu	a1,s2,a1
    2e3c:	99d6                	add	s3,s3,s5
    2e3e:	99ae                	add	s3,s3,a1
    2e40:	a21d                	j	2f66 <mktime+0x2e4>
    2e42:	f0fb0fe3          	beq	s6,a5,2d60 <mktime+0xde>
    2e46:	04500713          	li	a4,69
    2e4a:	06400613          	li	a2,100
    2e4e:	19000593          	li	a1,400
    2e52:	a00d                	j	2e74 <mktime+0x1f2>
    2e54:	ee91                	bnez	a3,2e70 <mktime+0x1ee>
    2e56:	02c766b3          	rem	a3,a4,a2
    2e5a:	16e00793          	li	a5,366
    2e5e:	ea89                	bnez	a3,2e70 <mktime+0x1ee>
    2e60:	76c70793          	addi	a5,a4,1900
    2e64:	02b7e7b3          	rem	a5,a5,a1
    2e68:	0017b793          	seqz	a5,a5
    2e6c:	16d78793          	addi	a5,a5,365
    2e70:	8c1d                	sub	s0,s0,a5
    2e72:	177d                	addi	a4,a4,-1
    2e74:	00377693          	andi	a3,a4,3
    2e78:	16d00793          	li	a5,365
    2e7c:	fceb4ce3          	blt	s6,a4,2e54 <mktime+0x1d2>
    2e80:	e295                	bnez	a3,2ea4 <mktime+0x222>
    2e82:	06400713          	li	a4,100
    2e86:	02eb6733          	rem	a4,s6,a4
    2e8a:	16e00793          	li	a5,366
    2e8e:	eb19                	bnez	a4,2ea4 <mktime+0x222>
    2e90:	76cb0793          	addi	a5,s6,1900
    2e94:	19000713          	li	a4,400
    2e98:	02e7e7b3          	rem	a5,a5,a4
    2e9c:	0017b793          	seqz	a5,a5
    2ea0:	16d78793          	addi	a5,a5,365
    2ea4:	8c1d                	sub	s0,s0,a5
    2ea6:	bd6d                	j	2d60 <mktime+0xde>
    2ea8:	2929                	jal	32c2 <__tzcalc_limits>
    2eaa:	ee051fe3          	bnez	a0,2da8 <mktime+0x126>
    2eae:	8c66                	mv	s8,s9
    2eb0:	a871                	j	2f4c <mktime+0x2ca>
    2eb2:	f6ea45e3          	blt	s4,a4,2e1c <mktime+0x19a>
    2eb6:	01471463          	bne	a4,s4,2ebe <mktime+0x23c>
    2eba:	f6c9e1e3          	bltu	s3,a2,2e1c <mktime+0x19a>
    2ebe:	4c05                	li	s8,1
    2ec0:	080d4963          	bltz	s10,2f52 <mktime+0x2d0>
    2ec4:	018cccb3          	xor	s9,s9,s8
    2ec8:	4785                	li	a5,1
    2eca:	08fc9163          	bne	s9,a5,2f4c <mktime+0x2ca>
    2ece:	41050933          	sub	s2,a0,a6
    2ed2:	000c0463          	beqz	s8,2eda <mktime+0x258>
    2ed6:	40a80933          	sub	s2,a6,a0
    2eda:	409c                	lw	a5,0(s1)
    2edc:	41f95a93          	srai	s5,s2,0x1f
    2ee0:	9a56                	add	s4,s4,s5
    2ee2:	97ca                	add	a5,a5,s2
    2ee4:	994e                	add	s2,s2,s3
    2ee6:	c09c                	sw	a5,0(s1)
    2ee8:	013939b3          	sltu	s3,s2,s3
    2eec:	8526                	mv	a0,s1
    2eee:	01498ab3          	add	s5,s3,s4
    2ef2:	00c4a983          	lw	s3,12(s1)
    2ef6:	bc7ff0ef          	jal	ra,2abc <validate_structure>
    2efa:	44dc                	lw	a5,12(s1)
    2efc:	413787b3          	sub	a5,a5,s3
    2f00:	c7b1                	beqz	a5,2f4c <mktime+0x2ca>
    2f02:	4705                	li	a4,1
    2f04:	08f74b63          	blt	a4,a5,2f9a <mktime+0x318>
    2f08:	577d                	li	a4,-1
    2f0a:	00e7d363          	bge	a5,a4,2f10 <mktime+0x28e>
    2f0e:	87e6                	mv	a5,s9
    2f10:	4cd8                	lw	a4,28(s1)
    2f12:	943e                	add	s0,s0,a5
    2f14:	97ba                	add	a5,a5,a4
    2f16:	0807d463          	bgez	a5,2f9e <mktime+0x31c>
    2f1a:	fffb0713          	addi	a4,s6,-1
    2f1e:	00377693          	andi	a3,a4,3
    2f22:	16c00793          	li	a5,364
    2f26:	e295                	bnez	a3,2f4a <mktime+0x2c8>
    2f28:	06400793          	li	a5,100
    2f2c:	02f76733          	rem	a4,a4,a5
    2f30:	16d00793          	li	a5,365
    2f34:	eb19                	bnez	a4,2f4a <mktime+0x2c8>
    2f36:	76bb0793          	addi	a5,s6,1899
    2f3a:	19000b13          	li	s6,400
    2f3e:	0367e7b3          	rem	a5,a5,s6
    2f42:	0017b793          	seqz	a5,a5
    2f46:	16c78793          	addi	a5,a5,364
    2f4a:	ccdc                	sw	a5,28(s1)
    2f4c:	4785                	li	a5,1
    2f4e:	eefc10e3          	bne	s8,a5,2e2e <mktime+0x1ac>
    2f52:	050ba583          	lw	a1,80(s7)
    2f56:	4c05                	li	s8,1
    2f58:	41f5d993          	srai	s3,a1,0x1f
    2f5c:	992e                	add	s2,s2,a1
    2f5e:	00b935b3          	sltu	a1,s2,a1
    2f62:	99d6                	add	s3,s3,s5
    2f64:	99ae                	add	s3,s3,a1
    2f66:	296d                	jal	3420 <__tz_unlock>
    2f68:	0411                	addi	s0,s0,4
    2f6a:	479d                	li	a5,7
    2f6c:	02f46433          	rem	s0,s0,a5
    2f70:	0384a023          	sw	s8,32(s1)
    2f74:	04044f63          	bltz	s0,2fd2 <mktime+0x350>
    2f78:	cc80                	sw	s0,24(s1)
    2f7a:	50b2                	lw	ra,44(sp)
    2f7c:	5422                	lw	s0,40(sp)
    2f7e:	854a                	mv	a0,s2
    2f80:	85ce                	mv	a1,s3
    2f82:	5492                	lw	s1,36(sp)
    2f84:	5902                	lw	s2,32(sp)
    2f86:	49f2                	lw	s3,28(sp)
    2f88:	4a62                	lw	s4,24(sp)
    2f8a:	4ad2                	lw	s5,20(sp)
    2f8c:	4b42                	lw	s6,16(sp)
    2f8e:	4bb2                	lw	s7,12(sp)
    2f90:	4c22                	lw	s8,8(sp)
    2f92:	4c92                	lw	s9,4(sp)
    2f94:	4d02                	lw	s10,0(sp)
    2f96:	6145                	addi	sp,sp,48
    2f98:	8082                	ret
    2f9a:	57fd                	li	a5,-1
    2f9c:	bf95                	j	2f10 <mktime+0x28e>
    2f9e:	003b7693          	andi	a3,s6,3
    2fa2:	16d00713          	li	a4,365
    2fa6:	e295                	bnez	a3,2fca <mktime+0x348>
    2fa8:	06400693          	li	a3,100
    2fac:	02db66b3          	rem	a3,s6,a3
    2fb0:	16e00713          	li	a4,366
    2fb4:	ea99                	bnez	a3,2fca <mktime+0x348>
    2fb6:	76cb0713          	addi	a4,s6,1900
    2fba:	19000b13          	li	s6,400
    2fbe:	03676733          	rem	a4,a4,s6
    2fc2:	00173713          	seqz	a4,a4
    2fc6:	16d70713          	addi	a4,a4,365
    2fca:	f8e7c0e3          	blt	a5,a4,2f4a <mktime+0x2c8>
    2fce:	8f99                	sub	a5,a5,a4
    2fd0:	bfad                	j	2f4a <mktime+0x2c8>
    2fd2:	041d                	addi	s0,s0,7
    2fd4:	b755                	j	2f78 <mktime+0x2f6>
    2fd6:	597d                	li	s2,-1
    2fd8:	59fd                	li	s3,-1
    2fda:	b745                	j	2f7a <mktime+0x2f8>

00002fdc <_free_r>:
    2fdc:	c1dd                	beqz	a1,3082 <_free_r+0xa6>
    2fde:	ffc5a783          	lw	a5,-4(a1)
    2fe2:	1141                	addi	sp,sp,-16
    2fe4:	c422                	sw	s0,8(sp)
    2fe6:	c606                	sw	ra,12(sp)
    2fe8:	c226                	sw	s1,4(sp)
    2fea:	ffc58413          	addi	s0,a1,-4
    2fee:	0007d363          	bgez	a5,2ff4 <_free_r+0x18>
    2ff2:	943e                	add	s0,s0,a5
    2ff4:	84aa                	mv	s1,a0
    2ff6:	751000ef          	jal	ra,3f46 <__malloc_lock>
    2ffa:	85c18793          	addi	a5,gp,-1956 # 20000304 <__malloc_free_list>
    2ffe:	439c                	lw	a5,0(a5)
    3000:	ef81                	bnez	a5,3018 <_free_r+0x3c>
    3002:	00042223          	sw	zero,4(s0)
    3006:	8481ae23          	sw	s0,-1956(gp) # 20000304 <__malloc_free_list>
    300a:	4422                	lw	s0,8(sp)
    300c:	40b2                	lw	ra,12(sp)
    300e:	8526                	mv	a0,s1
    3010:	4492                	lw	s1,4(sp)
    3012:	0141                	addi	sp,sp,16
    3014:	7350006f          	j	3f48 <__malloc_unlock>
    3018:	00f47e63          	bgeu	s0,a5,3034 <_free_r+0x58>
    301c:	4014                	lw	a3,0(s0)
    301e:	00d40733          	add	a4,s0,a3
    3022:	00e79663          	bne	a5,a4,302e <_free_r+0x52>
    3026:	4398                	lw	a4,0(a5)
    3028:	43dc                	lw	a5,4(a5)
    302a:	9736                	add	a4,a4,a3
    302c:	c018                	sw	a4,0(s0)
    302e:	c05c                	sw	a5,4(s0)
    3030:	bfd9                	j	3006 <_free_r+0x2a>
    3032:	87ba                	mv	a5,a4
    3034:	43d8                	lw	a4,4(a5)
    3036:	c319                	beqz	a4,303c <_free_r+0x60>
    3038:	fee47de3          	bgeu	s0,a4,3032 <_free_r+0x56>
    303c:	4394                	lw	a3,0(a5)
    303e:	00d78633          	add	a2,a5,a3
    3042:	00861f63          	bne	a2,s0,3060 <_free_r+0x84>
    3046:	4010                	lw	a2,0(s0)
    3048:	96b2                	add	a3,a3,a2
    304a:	c394                	sw	a3,0(a5)
    304c:	00d78633          	add	a2,a5,a3
    3050:	fac71de3          	bne	a4,a2,300a <_free_r+0x2e>
    3054:	4310                	lw	a2,0(a4)
    3056:	4358                	lw	a4,4(a4)
    3058:	96b2                	add	a3,a3,a2
    305a:	c394                	sw	a3,0(a5)
    305c:	c3d8                	sw	a4,4(a5)
    305e:	b775                	j	300a <_free_r+0x2e>
    3060:	00c47563          	bgeu	s0,a2,306a <_free_r+0x8e>
    3064:	47b1                	li	a5,12
    3066:	c09c                	sw	a5,0(s1)
    3068:	b74d                	j	300a <_free_r+0x2e>
    306a:	4010                	lw	a2,0(s0)
    306c:	00c406b3          	add	a3,s0,a2
    3070:	00d71663          	bne	a4,a3,307c <_free_r+0xa0>
    3074:	4314                	lw	a3,0(a4)
    3076:	4358                	lw	a4,4(a4)
    3078:	96b2                	add	a3,a3,a2
    307a:	c014                	sw	a3,0(s0)
    307c:	c058                	sw	a4,4(s0)
    307e:	c3c0                	sw	s0,4(a5)
    3080:	b769                	j	300a <_free_r+0x2e>
    3082:	8082                	ret

00003084 <_malloc_r>:
    3084:	1101                	addi	sp,sp,-32
    3086:	ca26                	sw	s1,20(sp)
    3088:	00358493          	addi	s1,a1,3
    308c:	98f1                	andi	s1,s1,-4
    308e:	ce06                	sw	ra,28(sp)
    3090:	cc22                	sw	s0,24(sp)
    3092:	c84a                	sw	s2,16(sp)
    3094:	c64e                	sw	s3,12(sp)
    3096:	04a1                	addi	s1,s1,8
    3098:	47b1                	li	a5,12
    309a:	04f4f363          	bgeu	s1,a5,30e0 <_malloc_r+0x5c>
    309e:	44b1                	li	s1,12
    30a0:	04b4e263          	bltu	s1,a1,30e4 <_malloc_r+0x60>
    30a4:	892a                	mv	s2,a0
    30a6:	6a1000ef          	jal	ra,3f46 <__malloc_lock>
    30aa:	85c18793          	addi	a5,gp,-1956 # 20000304 <__malloc_free_list>
    30ae:	4398                	lw	a4,0(a5)
    30b0:	843a                	mv	s0,a4
    30b2:	e039                	bnez	s0,30f8 <_malloc_r+0x74>
    30b4:	86018793          	addi	a5,gp,-1952 # 20000308 <__malloc_sbrk_start>
    30b8:	439c                	lw	a5,0(a5)
    30ba:	e791                	bnez	a5,30c6 <_malloc_r+0x42>
    30bc:	4581                	li	a1,0
    30be:	854a                	mv	a0,s2
    30c0:	2a7d                	jal	327e <_sbrk_r>
    30c2:	86a1a023          	sw	a0,-1952(gp) # 20000308 <__malloc_sbrk_start>
    30c6:	85a6                	mv	a1,s1
    30c8:	854a                	mv	a0,s2
    30ca:	2a55                	jal	327e <_sbrk_r>
    30cc:	59fd                	li	s3,-1
    30ce:	07351963          	bne	a0,s3,3140 <_malloc_r+0xbc>
    30d2:	47b1                	li	a5,12
    30d4:	00f92023          	sw	a5,0(s2) # 3000 <_free_r+0x24>
    30d8:	854a                	mv	a0,s2
    30da:	66f000ef          	jal	ra,3f48 <__malloc_unlock>
    30de:	a029                	j	30e8 <_malloc_r+0x64>
    30e0:	fc04d0e3          	bgez	s1,30a0 <_malloc_r+0x1c>
    30e4:	47b1                	li	a5,12
    30e6:	c11c                	sw	a5,0(a0)
    30e8:	4501                	li	a0,0
    30ea:	40f2                	lw	ra,28(sp)
    30ec:	4462                	lw	s0,24(sp)
    30ee:	44d2                	lw	s1,20(sp)
    30f0:	4942                	lw	s2,16(sp)
    30f2:	49b2                	lw	s3,12(sp)
    30f4:	6105                	addi	sp,sp,32
    30f6:	8082                	ret
    30f8:	401c                	lw	a5,0(s0)
    30fa:	8f85                	sub	a5,a5,s1
    30fc:	0207cf63          	bltz	a5,313a <_malloc_r+0xb6>
    3100:	46ad                	li	a3,11
    3102:	00f6f663          	bgeu	a3,a5,310e <_malloc_r+0x8a>
    3106:	c01c                	sw	a5,0(s0)
    3108:	943e                	add	s0,s0,a5
    310a:	c004                	sw	s1,0(s0)
    310c:	a031                	j	3118 <_malloc_r+0x94>
    310e:	405c                	lw	a5,4(s0)
    3110:	02871363          	bne	a4,s0,3136 <_malloc_r+0xb2>
    3114:	84f1ae23          	sw	a5,-1956(gp) # 20000304 <__malloc_free_list>
    3118:	854a                	mv	a0,s2
    311a:	62f000ef          	jal	ra,3f48 <__malloc_unlock>
    311e:	00b40513          	addi	a0,s0,11
    3122:	00440793          	addi	a5,s0,4
    3126:	9961                	andi	a0,a0,-8
    3128:	40f50733          	sub	a4,a0,a5
    312c:	df5d                	beqz	a4,30ea <_malloc_r+0x66>
    312e:	943a                	add	s0,s0,a4
    3130:	8f89                	sub	a5,a5,a0
    3132:	c01c                	sw	a5,0(s0)
    3134:	bf5d                	j	30ea <_malloc_r+0x66>
    3136:	c35c                	sw	a5,4(a4)
    3138:	b7c5                	j	3118 <_malloc_r+0x94>
    313a:	8722                	mv	a4,s0
    313c:	4040                	lw	s0,4(s0)
    313e:	bf95                	j	30b2 <_malloc_r+0x2e>
    3140:	00350413          	addi	s0,a0,3
    3144:	9871                	andi	s0,s0,-4
    3146:	fc8502e3          	beq	a0,s0,310a <_malloc_r+0x86>
    314a:	40a405b3          	sub	a1,s0,a0
    314e:	854a                	mv	a0,s2
    3150:	223d                	jal	327e <_sbrk_r>
    3152:	fb351ce3          	bne	a0,s3,310a <_malloc_r+0x86>
    3156:	bfb5                	j	30d2 <_malloc_r+0x4e>

00003158 <iprintf>:
    3158:	7139                	addi	sp,sp,-64
    315a:	da3e                	sw	a5,52(sp)
    315c:	d22e                	sw	a1,36(sp)
    315e:	d432                	sw	a2,40(sp)
    3160:	d636                	sw	a3,44(sp)
    3162:	d83a                	sw	a4,48(sp)
    3164:	dc42                	sw	a6,56(sp)
    3166:	de46                	sw	a7,60(sp)
    3168:	80c18793          	addi	a5,gp,-2036 # 200002b4 <_impure_ptr>
    316c:	cc22                	sw	s0,24(sp)
    316e:	4380                	lw	s0,0(a5)
    3170:	ca26                	sw	s1,20(sp)
    3172:	ce06                	sw	ra,28(sp)
    3174:	84aa                	mv	s1,a0
    3176:	c411                	beqz	s0,3182 <iprintf+0x2a>
    3178:	4c1c                	lw	a5,24(s0)
    317a:	e781                	bnez	a5,3182 <iprintf+0x2a>
    317c:	8522                	mv	a0,s0
    317e:	2b7000ef          	jal	ra,3c34 <__sinit>
    3182:	440c                	lw	a1,8(s0)
    3184:	1054                	addi	a3,sp,36
    3186:	8626                	mv	a2,s1
    3188:	8522                	mv	a0,s0
    318a:	c636                	sw	a3,12(sp)
    318c:	176010ef          	jal	ra,4302 <_vfiprintf_r>
    3190:	40f2                	lw	ra,28(sp)
    3192:	4462                	lw	s0,24(sp)
    3194:	44d2                	lw	s1,20(sp)
    3196:	6121                	addi	sp,sp,64
    3198:	8082                	ret

0000319a <_puts_r>:
    319a:	1101                	addi	sp,sp,-32
    319c:	ca26                	sw	s1,20(sp)
    319e:	c84a                	sw	s2,16(sp)
    31a0:	ce06                	sw	ra,28(sp)
    31a2:	cc22                	sw	s0,24(sp)
    31a4:	c64e                	sw	s3,12(sp)
    31a6:	c452                	sw	s4,8(sp)
    31a8:	84aa                	mv	s1,a0
    31aa:	892e                	mv	s2,a1
    31ac:	c509                	beqz	a0,31b6 <_puts_r+0x1c>
    31ae:	4d1c                	lw	a5,24(a0)
    31b0:	e399                	bnez	a5,31b6 <_puts_r+0x1c>
    31b2:	283000ef          	jal	ra,3c34 <__sinit>
    31b6:	4c9c                	lw	a5,24(s1)
    31b8:	4480                	lw	s0,8(s1)
    31ba:	e781                	bnez	a5,31c2 <_puts_r+0x28>
    31bc:	8526                	mv	a0,s1
    31be:	277000ef          	jal	ra,3c34 <__sinit>
    31c2:	00003797          	auipc	a5,0x3
    31c6:	f9a78793          	addi	a5,a5,-102 # 615c <__sf_fake_stdin>
    31ca:	02f41b63          	bne	s0,a5,3200 <_puts_r+0x66>
    31ce:	40c0                	lw	s0,4(s1)
    31d0:	245e                	lhu	a5,12(s0)
    31d2:	8ba1                	andi	a5,a5,8
    31d4:	c7b1                	beqz	a5,3220 <_puts_r+0x86>
    31d6:	481c                	lw	a5,16(s0)
    31d8:	c7a1                	beqz	a5,3220 <_puts_r+0x86>
    31da:	59fd                	li	s3,-1
    31dc:	4a29                	li	s4,10
    31de:	441c                	lw	a5,8(s0)
    31e0:	00094583          	lbu	a1,0(s2)
    31e4:	17fd                	addi	a5,a5,-1
    31e6:	e9b1                	bnez	a1,323a <_puts_r+0xa0>
    31e8:	c41c                	sw	a5,8(s0)
    31ea:	0607dd63          	bgez	a5,3264 <_puts_r+0xca>
    31ee:	8622                	mv	a2,s0
    31f0:	45a9                	li	a1,10
    31f2:	8526                	mv	a0,s1
    31f4:	2539                	jal	3802 <__swbuf_r>
    31f6:	57fd                	li	a5,-1
    31f8:	02f50863          	beq	a0,a5,3228 <_puts_r+0x8e>
    31fc:	4529                	li	a0,10
    31fe:	a035                	j	322a <_puts_r+0x90>
    3200:	00003797          	auipc	a5,0x3
    3204:	f7c78793          	addi	a5,a5,-132 # 617c <__sf_fake_stdout>
    3208:	00f41463          	bne	s0,a5,3210 <_puts_r+0x76>
    320c:	4480                	lw	s0,8(s1)
    320e:	b7c9                	j	31d0 <_puts_r+0x36>
    3210:	00003797          	auipc	a5,0x3
    3214:	f2c78793          	addi	a5,a5,-212 # 613c <__sf_fake_stderr>
    3218:	faf41ce3          	bne	s0,a5,31d0 <_puts_r+0x36>
    321c:	44c0                	lw	s0,12(s1)
    321e:	bf4d                	j	31d0 <_puts_r+0x36>
    3220:	85a2                	mv	a1,s0
    3222:	8526                	mv	a0,s1
    3224:	2d69                	jal	38be <__swsetup_r>
    3226:	d955                	beqz	a0,31da <_puts_r+0x40>
    3228:	557d                	li	a0,-1
    322a:	40f2                	lw	ra,28(sp)
    322c:	4462                	lw	s0,24(sp)
    322e:	44d2                	lw	s1,20(sp)
    3230:	4942                	lw	s2,16(sp)
    3232:	49b2                	lw	s3,12(sp)
    3234:	4a22                	lw	s4,8(sp)
    3236:	6105                	addi	sp,sp,32
    3238:	8082                	ret
    323a:	c41c                	sw	a5,8(s0)
    323c:	0905                	addi	s2,s2,1
    323e:	0007d763          	bgez	a5,324c <_puts_r+0xb2>
    3242:	4c18                	lw	a4,24(s0)
    3244:	00e7ca63          	blt	a5,a4,3258 <_puts_r+0xbe>
    3248:	01458863          	beq	a1,s4,3258 <_puts_r+0xbe>
    324c:	401c                	lw	a5,0(s0)
    324e:	00178713          	addi	a4,a5,1
    3252:	c018                	sw	a4,0(s0)
    3254:	a38c                	sb	a1,0(a5)
    3256:	b761                	j	31de <_puts_r+0x44>
    3258:	8622                	mv	a2,s0
    325a:	8526                	mv	a0,s1
    325c:	235d                	jal	3802 <__swbuf_r>
    325e:	f93510e3          	bne	a0,s3,31de <_puts_r+0x44>
    3262:	b7d9                	j	3228 <_puts_r+0x8e>
    3264:	401c                	lw	a5,0(s0)
    3266:	00178713          	addi	a4,a5,1
    326a:	c018                	sw	a4,0(s0)
    326c:	4729                	li	a4,10
    326e:	a398                	sb	a4,0(a5)
    3270:	b771                	j	31fc <_puts_r+0x62>

00003272 <puts>:
    3272:	80c18793          	addi	a5,gp,-2036 # 200002b4 <_impure_ptr>
    3276:	85aa                	mv	a1,a0
    3278:	4388                	lw	a0,0(a5)
    327a:	f21ff06f          	j	319a <_puts_r>

0000327e <_sbrk_r>:
    327e:	1141                	addi	sp,sp,-16
    3280:	c422                	sw	s0,8(sp)
    3282:	842a                	mv	s0,a0
    3284:	852e                	mv	a0,a1
    3286:	1ffff797          	auipc	a5,0x1ffff
    328a:	9007a123          	sw	zero,-1790(a5) # 20001b88 <errno>
    328e:	c606                	sw	ra,12(sp)
    3290:	ed3fd0ef          	jal	ra,1162 <_sbrk>
    3294:	57fd                	li	a5,-1
    3296:	00f51963          	bne	a0,a5,32a8 <_sbrk_r+0x2a>
    329a:	1ffff797          	auipc	a5,0x1ffff
    329e:	8ee78793          	addi	a5,a5,-1810 # 20001b88 <errno>
    32a2:	439c                	lw	a5,0(a5)
    32a4:	c391                	beqz	a5,32a8 <_sbrk_r+0x2a>
    32a6:	c01c                	sw	a5,0(s0)
    32a8:	40b2                	lw	ra,12(sp)
    32aa:	4422                	lw	s0,8(sp)
    32ac:	0141                	addi	sp,sp,16
    32ae:	8082                	ret

000032b0 <strlen>:
    32b0:	87aa                	mv	a5,a0
    32b2:	0785                	addi	a5,a5,1
    32b4:	fff7c703          	lbu	a4,-1(a5)
    32b8:	ff6d                	bnez	a4,32b2 <strlen+0x2>
    32ba:	40a78533          	sub	a0,a5,a0
    32be:	157d                	addi	a0,a0,-1
    32c0:	8082                	ret

000032c2 <__tzcalc_limits>:
    32c2:	1101                	addi	sp,sp,-32
    32c4:	cc22                	sw	s0,24(sp)
    32c6:	ce06                	sw	ra,28(sp)
    32c8:	ca26                	sw	s1,20(sp)
    32ca:	c84a                	sw	s2,16(sp)
    32cc:	c64e                	sw	s3,12(sp)
    32ce:	c452                	sw	s4,8(sp)
    32d0:	c256                	sw	s5,4(sp)
    32d2:	842a                	mv	s0,a0
    32d4:	37d000ef          	jal	ra,3e50 <__gettzinfo>
    32d8:	7b100793          	li	a5,1969
    32dc:	1287df63          	bge	a5,s0,341a <__tzcalc_limits+0x158>
    32e0:	84e40613          	addi	a2,s0,-1970
    32e4:	16d00793          	li	a5,365
    32e8:	02f60633          	mul	a2,a2,a5
    32ec:	84f40793          	addi	a5,s0,-1969
    32f0:	8789                	srai	a5,a5,0x2
    32f2:	f9c00713          	li	a4,-100
    32f6:	19000893          	li	a7,400
    32fa:	06400313          	li	t1,100
    32fe:	6e55                	lui	t3,0x15
    3300:	c140                	sw	s0,4(a0)
    3302:	00850693          	addi	a3,a0,8
    3306:	05850f93          	addi	t6,a0,88
    330a:	963e                	add	a2,a2,a5
    330c:	89340793          	addi	a5,s0,-1901
    3310:	02e7c7b3          	div	a5,a5,a4
    3314:	04a00293          	li	t0,74
    3318:	00347713          	andi	a4,s0,3
    331c:	04400393          	li	t2,68
    3320:	00003497          	auipc	s1,0x3
    3324:	e7c48493          	addi	s1,s1,-388 # 619c <__month_lengths>
    3328:	4f1d                	li	t5,7
    332a:	180e0e13          	addi	t3,t3,384 # 15180 <_data_lma+0xed14>
    332e:	963e                	add	a2,a2,a5
    3330:	9bf40793          	addi	a5,s0,-1601
    3334:	0317c7b3          	div	a5,a5,a7
    3338:	031468b3          	rem	a7,s0,a7
    333c:	963e                	add	a2,a2,a5
    333e:	02646333          	rem	t1,s0,t1
    3342:	0018be93          	seqz	t4,a7
    3346:	03000413          	li	s0,48
    334a:	229c                	lbu	a5,0(a3)
    334c:	46cc                	lw	a1,12(a3)
    334e:	06579763          	bne	a5,t0,33bc <__tzcalc_limits+0xfa>
    3352:	00b607b3          	add	a5,a2,a1
    3356:	e319                	bnez	a4,335c <__tzcalc_limits+0x9a>
    3358:	00031563          	bnez	t1,3362 <__tzcalc_limits+0xa0>
    335c:	4801                	li	a6,0
    335e:	00089663          	bnez	a7,336a <__tzcalc_limits+0xa8>
    3362:	03c5a813          	slti	a6,a1,60
    3366:	00184813          	xori	a6,a6,1
    336a:	97c2                	add	a5,a5,a6
    336c:	17fd                	addi	a5,a5,-1
    336e:	4a8c                	lw	a1,16(a3)
    3370:	02868693          	addi	a3,a3,40
    3374:	03c787b3          	mul	a5,a5,t3
    3378:	97ae                	add	a5,a5,a1
    337a:	ff86a583          	lw	a1,-8(a3)
    337e:	97ae                	add	a5,a5,a1
    3380:	fef6a823          	sw	a5,-16(a3)
    3384:	87fd                	srai	a5,a5,0x1f
    3386:	fef6aa23          	sw	a5,-12(a3)
    338a:	fcdf90e3          	bne	t6,a3,334a <__tzcalc_limits+0x88>
    338e:	4574                	lw	a3,76(a0)
    3390:	5158                	lw	a4,36(a0)
    3392:	4785                	li	a5,1
    3394:	00d74963          	blt	a4,a3,33a6 <__tzcalc_limits+0xe4>
    3398:	00e69663          	bne	a3,a4,33a4 <__tzcalc_limits+0xe2>
    339c:	4534                	lw	a3,72(a0)
    339e:	5118                	lw	a4,32(a0)
    33a0:	00d76363          	bltu	a4,a3,33a6 <__tzcalc_limits+0xe4>
    33a4:	4781                	li	a5,0
    33a6:	c11c                	sw	a5,0(a0)
    33a8:	4505                	li	a0,1
    33aa:	40f2                	lw	ra,28(sp)
    33ac:	4462                	lw	s0,24(sp)
    33ae:	44d2                	lw	s1,20(sp)
    33b0:	4942                	lw	s2,16(sp)
    33b2:	49b2                	lw	s3,12(sp)
    33b4:	4a22                	lw	s4,8(sp)
    33b6:	4a92                	lw	s5,4(sp)
    33b8:	6105                	addi	sp,sp,32
    33ba:	8082                	ret
    33bc:	00779563          	bne	a5,t2,33c6 <__tzcalc_limits+0x104>
    33c0:	00b607b3          	add	a5,a2,a1
    33c4:	b76d                	j	336e <__tzcalc_limits+0xac>
    33c6:	87f6                	mv	a5,t4
    33c8:	e701                	bnez	a4,33d0 <__tzcalc_limits+0x10e>
    33ca:	00030363          	beqz	t1,33d0 <__tzcalc_limits+0x10e>
    33ce:	4785                	li	a5,1
    33d0:	0046aa83          	lw	s5,4(a3)
    33d4:	02878933          	mul	s2,a5,s0
    33d8:	4981                	li	s3,0
    33da:	87b2                	mv	a5,a2
    33dc:	0985                	addi	s3,s3,1
    33de:	00299813          	slli	a6,s3,0x2
    33e2:	984a                	add	a6,a6,s2
    33e4:	9826                	add	a6,a6,s1
    33e6:	ffc82a03          	lw	s4,-4(a6)
    33ea:	0359c463          	blt	s3,s5,3412 <__tzcalc_limits+0x150>
    33ee:	00478813          	addi	a6,a5,4
    33f2:	03e86833          	rem	a6,a6,t5
    33f6:	41058833          	sub	a6,a1,a6
    33fa:	00085363          	bgez	a6,3400 <__tzcalc_limits+0x13e>
    33fe:	081d                	addi	a6,a6,7
    3400:	468c                	lw	a1,8(a3)
    3402:	15fd                	addi	a1,a1,-1
    3404:	03e585b3          	mul	a1,a1,t5
    3408:	95c2                	add	a1,a1,a6
    340a:	0145d663          	bge	a1,s4,3416 <__tzcalc_limits+0x154>
    340e:	97ae                	add	a5,a5,a1
    3410:	bfb9                	j	336e <__tzcalc_limits+0xac>
    3412:	97d2                	add	a5,a5,s4
    3414:	b7e1                	j	33dc <__tzcalc_limits+0x11a>
    3416:	15e5                	addi	a1,a1,-7
    3418:	bfcd                	j	340a <__tzcalc_limits+0x148>
    341a:	4501                	li	a0,0
    341c:	b779                	j	33aa <__tzcalc_limits+0xe8>

0000341e <__tz_lock>:
    341e:	8082                	ret

00003420 <__tz_unlock>:
    3420:	8082                	ret

00003422 <_tzset_unlocked>:
    3422:	80c18793          	addi	a5,gp,-2036 # 200002b4 <_impure_ptr>
    3426:	4388                	lw	a0,0(a5)
    3428:	a009                	j	342a <_tzset_unlocked_r>

0000342a <_tzset_unlocked_r>:
    342a:	715d                	addi	sp,sp,-80
    342c:	c686                	sw	ra,76(sp)
    342e:	c2a6                	sw	s1,68(sp)
    3430:	c0ca                	sw	s2,64(sp)
    3432:	de4e                	sw	s3,60(sp)
    3434:	c4a2                	sw	s0,72(sp)
    3436:	89aa                	mv	s3,a0
    3438:	dc52                	sw	s4,56(sp)
    343a:	da56                	sw	s5,52(sp)
    343c:	d85a                	sw	s6,48(sp)
    343e:	d65e                	sw	s7,44(sp)
    3440:	211000ef          	jal	ra,3e50 <__gettzinfo>
    3444:	84aa                	mv	s1,a0
    3446:	00003597          	auipc	a1,0x3
    344a:	ca258593          	addi	a1,a1,-862 # 60e8 <_DAYS_BEFORE_MONTH+0x30>
    344e:	854e                	mv	a0,s3
    3450:	1f1000ef          	jal	ra,3e40 <_getenv_r>
    3454:	86418913          	addi	s2,gp,-1948 # 2000030c <prev_tzenv>
    3458:	ed15                	bnez	a0,3494 <_tzset_unlocked_r+0x6a>
    345a:	00092503          	lw	a0,0(s2)
    345e:	8601a623          	sw	zero,-1940(gp) # 20000314 <_timezone>
    3462:	8601a423          	sw	zero,-1944(gp) # 20000310 <_daylight>
    3466:	00003797          	auipc	a5,0x3
    346a:	c8678793          	addi	a5,a5,-890 # 60ec <_DAYS_BEFORE_MONTH+0x34>
    346e:	80f1a823          	sw	a5,-2032(gp) # 200002b8 <_tzname>
    3472:	80f1aa23          	sw	a5,-2028(gp) # 200002bc <_tzname+0x4>
    3476:	d8aff0ef          	jal	ra,2a00 <free>
    347a:	8601a223          	sw	zero,-1948(gp) # 2000030c <prev_tzenv>
    347e:	40b6                	lw	ra,76(sp)
    3480:	4426                	lw	s0,72(sp)
    3482:	4496                	lw	s1,68(sp)
    3484:	4906                	lw	s2,64(sp)
    3486:	59f2                	lw	s3,60(sp)
    3488:	5a62                	lw	s4,56(sp)
    348a:	5ad2                	lw	s5,52(sp)
    348c:	5b42                	lw	s6,48(sp)
    348e:	5bb2                	lw	s7,44(sp)
    3490:	6161                	addi	sp,sp,80
    3492:	8082                	ret
    3494:	00092583          	lw	a1,0(s2)
    3498:	842a                	mv	s0,a0
    349a:	0e059763          	bnez	a1,3588 <_tzset_unlocked_r+0x15e>
    349e:	00092503          	lw	a0,0(s2)
    34a2:	d5eff0ef          	jal	ra,2a00 <free>
    34a6:	8522                	mv	a0,s0
    34a8:	e09ff0ef          	jal	ra,32b0 <strlen>
    34ac:	00150593          	addi	a1,a0,1
    34b0:	854e                	mv	a0,s3
    34b2:	bd3ff0ef          	jal	ra,3084 <_malloc_r>
    34b6:	86a1a223          	sw	a0,-1948(gp) # 2000030c <prev_tzenv>
    34ba:	ed61                	bnez	a0,3592 <_tzset_unlocked_r+0x168>
    34bc:	2018                	lbu	a4,0(s0)
    34be:	03a00793          	li	a5,58
    34c2:	00f71363          	bne	a4,a5,34c8 <_tzset_unlocked_r+0x9e>
    34c6:	0405                	addi	s0,s0,1
    34c8:	0834                	addi	a3,sp,24
    34ca:	1fffe617          	auipc	a2,0x1fffe
    34ce:	6b260613          	addi	a2,a2,1714 # 20001b7c <__tzname_std>
    34d2:	00003597          	auipc	a1,0x3
    34d6:	c1e58593          	addi	a1,a1,-994 # 60f0 <_DAYS_BEFORE_MONTH+0x38>
    34da:	8522                	mv	a0,s0
    34dc:	462010ef          	jal	ra,493e <siscanf>
    34e0:	f8a05fe3          	blez	a0,347e <_tzset_unlocked_r+0x54>
    34e4:	47e2                	lw	a5,24(sp)
    34e6:	02d00713          	li	a4,45
    34ea:	943e                	add	s0,s0,a5
    34ec:	201c                	lbu	a5,0(s0)
    34ee:	0ae79663          	bne	a5,a4,359a <_tzset_unlocked_r+0x170>
    34f2:	0405                	addi	s0,s0,1
    34f4:	597d                	li	s2,-1
    34f6:	01810893          	addi	a7,sp,24
    34fa:	01010813          	addi	a6,sp,16
    34fe:	87c6                	mv	a5,a7
    3500:	00e10713          	addi	a4,sp,14
    3504:	86c6                	mv	a3,a7
    3506:	0070                	addi	a2,sp,12
    3508:	00003597          	auipc	a1,0x3
    350c:	bf858593          	addi	a1,a1,-1032 # 6100 <_DAYS_BEFORE_MONTH+0x48>
    3510:	8522                	mv	a0,s0
    3512:	00011723          	sh	zero,14(sp)
    3516:	00011823          	sh	zero,16(sp)
    351a:	424010ef          	jal	ra,493e <siscanf>
    351e:	f6a050e3          	blez	a0,347e <_tzset_unlocked_r+0x54>
    3522:	873c                	lhu	a5,14(sp)
    3524:	03c00713          	li	a4,60
    3528:	6685                	lui	a3,0x1
    352a:	02e787b3          	mul	a5,a5,a4
    352e:	80b8                	lhu	a4,16(sp)
    3530:	e1068693          	addi	a3,a3,-496 # e10 <SPI_I2S_SendData+0x2>
    3534:	00003597          	auipc	a1,0x3
    3538:	bbc58593          	addi	a1,a1,-1092 # 60f0 <_DAYS_BEFORE_MONTH+0x38>
    353c:	97ba                	add	a5,a5,a4
    353e:	8638                	lhu	a4,12(sp)
    3540:	02d70733          	mul	a4,a4,a3
    3544:	0834                	addi	a3,sp,24
    3546:	97ba                	add	a5,a5,a4
    3548:	032787b3          	mul	a5,a5,s2
    354c:	1fffe917          	auipc	s2,0x1fffe
    3550:	62490913          	addi	s2,s2,1572 # 20001b70 <__tzname_dst>
    3554:	864a                	mv	a2,s2
    3556:	d49c                	sw	a5,40(s1)
    3558:	1fffe797          	auipc	a5,0x1fffe
    355c:	62478793          	addi	a5,a5,1572 # 20001b7c <__tzname_std>
    3560:	80f1a823          	sw	a5,-2032(gp) # 200002b8 <_tzname>
    3564:	47e2                	lw	a5,24(sp)
    3566:	943e                	add	s0,s0,a5
    3568:	8522                	mv	a0,s0
    356a:	3d4010ef          	jal	ra,493e <siscanf>
    356e:	02a04d63          	bgtz	a0,35a8 <_tzset_unlocked_r+0x17e>
    3572:	81018793          	addi	a5,gp,-2032 # 200002b8 <_tzname>
    3576:	439c                	lw	a5,0(a5)
    3578:	80f1aa23          	sw	a5,-2028(gp) # 200002bc <_tzname+0x4>
    357c:	549c                	lw	a5,40(s1)
    357e:	86f1a623          	sw	a5,-1940(gp) # 20000314 <_timezone>
    3582:	8601a423          	sw	zero,-1944(gp) # 20000310 <_daylight>
    3586:	bde5                	j	347e <_tzset_unlocked_r+0x54>
    3588:	d41fc0ef          	jal	ra,2c8 <strcmp>
    358c:	f00519e3          	bnez	a0,349e <_tzset_unlocked_r+0x74>
    3590:	b5fd                	j	347e <_tzset_unlocked_r+0x54>
    3592:	85a2                	mv	a1,s0
    3594:	4ac010ef          	jal	ra,4a40 <strcpy>
    3598:	b715                	j	34bc <_tzset_unlocked_r+0x92>
    359a:	02b00713          	li	a4,43
    359e:	4905                	li	s2,1
    35a0:	f4e79be3          	bne	a5,a4,34f6 <_tzset_unlocked_r+0xcc>
    35a4:	0405                	addi	s0,s0,1
    35a6:	bf81                	j	34f6 <_tzset_unlocked_r+0xcc>
    35a8:	8121aa23          	sw	s2,-2028(gp) # 200002bc <_tzname+0x4>
    35ac:	47e2                	lw	a5,24(sp)
    35ae:	02d00713          	li	a4,45
    35b2:	943e                	add	s0,s0,a5
    35b4:	201c                	lbu	a5,0(s0)
    35b6:	14e79763          	bne	a5,a4,3704 <_tzset_unlocked_r+0x2da>
    35ba:	0405                	addi	s0,s0,1
    35bc:	597d                	li	s2,-1
    35be:	01810893          	addi	a7,sp,24
    35c2:	01010813          	addi	a6,sp,16
    35c6:	87c6                	mv	a5,a7
    35c8:	00e10713          	addi	a4,sp,14
    35cc:	86c6                	mv	a3,a7
    35ce:	0070                	addi	a2,sp,12
    35d0:	00003597          	auipc	a1,0x3
    35d4:	b3058593          	addi	a1,a1,-1232 # 6100 <_DAYS_BEFORE_MONTH+0x48>
    35d8:	8522                	mv	a0,s0
    35da:	00011623          	sh	zero,12(sp)
    35de:	00011723          	sh	zero,14(sp)
    35e2:	00011823          	sh	zero,16(sp)
    35e6:	cc02                	sw	zero,24(sp)
    35e8:	356010ef          	jal	ra,493e <siscanf>
    35ec:	12a04363          	bgtz	a0,3712 <_tzset_unlocked_r+0x2e8>
    35f0:	549c                	lw	a5,40(s1)
    35f2:	777d                	lui	a4,0xfffff
    35f4:	1f070713          	addi	a4,a4,496 # fffff1f0 <_eusrstack+0xdfff71f0>
    35f8:	97ba                	add	a5,a5,a4
    35fa:	c8bc                	sw	a5,80(s1)
    35fc:	47e2                	lw	a5,24(sp)
    35fe:	6ac1                	lui	s5,0x10
    3600:	6a05                	lui	s4,0x1
    3602:	943e                	add	s0,s0,a5
    3604:	00848913          	addi	s2,s1,8
    3608:	4981                	li	s3,0
    360a:	1afd                	addi	s5,s5,-1
    360c:	e10a0a13          	addi	s4,s4,-496 # e10 <SPI_I2S_SendData+0x2>
    3610:	2018                	lbu	a4,0(s0)
    3612:	02c00793          	li	a5,44
    3616:	00f71363          	bne	a4,a5,361c <_tzset_unlocked_r+0x1f2>
    361a:	0405                	addi	s0,s0,1
    361c:	00044b03          	lbu	s6,0(s0)
    3620:	04d00793          	li	a5,77
    3624:	10fb1a63          	bne	s6,a5,3738 <_tzset_unlocked_r+0x30e>
    3628:	01810893          	addi	a7,sp,24
    362c:	87c6                	mv	a5,a7
    362e:	01610813          	addi	a6,sp,22
    3632:	0858                	addi	a4,sp,20
    3634:	86c6                	mv	a3,a7
    3636:	01210613          	addi	a2,sp,18
    363a:	00003597          	auipc	a1,0x3
    363e:	ada58593          	addi	a1,a1,-1318 # 6114 <_DAYS_BEFORE_MONTH+0x5c>
    3642:	8522                	mv	a0,s0
    3644:	2fa010ef          	jal	ra,493e <siscanf>
    3648:	478d                	li	a5,3
    364a:	e2f51ae3          	bne	a0,a5,347e <_tzset_unlocked_r+0x54>
    364e:	81b4                	lhu	a3,18(sp)
    3650:	472d                	li	a4,11
    3652:	fff68793          	addi	a5,a3,-1
    3656:	07c2                	slli	a5,a5,0x10
    3658:	83c1                	srli	a5,a5,0x10
    365a:	e2f762e3          	bltu	a4,a5,347e <_tzset_unlocked_r+0x54>
    365e:	82b8                	lhu	a4,20(sp)
    3660:	4611                	li	a2,4
    3662:	fff70793          	addi	a5,a4,-1
    3666:	07c2                	slli	a5,a5,0x10
    3668:	83c1                	srli	a5,a5,0x10
    366a:	e0f66ae3          	bltu	a2,a5,347e <_tzset_unlocked_r+0x54>
    366e:	83bc                	lhu	a5,22(sp)
    3670:	4619                	li	a2,6
    3672:	e0f666e3          	bltu	a2,a5,347e <_tzset_unlocked_r+0x54>
    3676:	01690023          	sb	s6,0(s2)
    367a:	00d92223          	sw	a3,4(s2)
    367e:	00e92423          	sw	a4,8(s2)
    3682:	00f92623          	sw	a5,12(s2)
    3686:	4b62                	lw	s6,24(sp)
    3688:	9b22                	add	s6,s6,s0
    368a:	4789                	li	a5,2
    368c:	867c                	sh	a5,12(sp)
    368e:	00011723          	sh	zero,14(sp)
    3692:	00011823          	sh	zero,16(sp)
    3696:	cc02                	sw	zero,24(sp)
    3698:	000b4703          	lbu	a4,0(s6)
    369c:	02f00793          	li	a5,47
    36a0:	02f71263          	bne	a4,a5,36c4 <_tzset_unlocked_r+0x29a>
    36a4:	01810893          	addi	a7,sp,24
    36a8:	01010813          	addi	a6,sp,16
    36ac:	87c6                	mv	a5,a7
    36ae:	00e10713          	addi	a4,sp,14
    36b2:	86c6                	mv	a3,a7
    36b4:	0070                	addi	a2,sp,12
    36b6:	00003597          	auipc	a1,0x3
    36ba:	a7258593          	addi	a1,a1,-1422 # 6128 <_DAYS_BEFORE_MONTH+0x70>
    36be:	855a                	mv	a0,s6
    36c0:	27e010ef          	jal	ra,493e <siscanf>
    36c4:	873c                	lhu	a5,14(sp)
    36c6:	03c00713          	li	a4,60
    36ca:	02890913          	addi	s2,s2,40
    36ce:	02e787b3          	mul	a5,a5,a4
    36d2:	80b8                	lhu	a4,16(sp)
    36d4:	97ba                	add	a5,a5,a4
    36d6:	8638                	lhu	a4,12(sp)
    36d8:	03470733          	mul	a4,a4,s4
    36dc:	97ba                	add	a5,a5,a4
    36de:	fef92423          	sw	a5,-24(s2)
    36e2:	4462                	lw	s0,24(sp)
    36e4:	945a                	add	s0,s0,s6
    36e6:	04098763          	beqz	s3,3734 <_tzset_unlocked_r+0x30a>
    36ea:	40c8                	lw	a0,4(s1)
    36ec:	bd7ff0ef          	jal	ra,32c2 <__tzcalc_limits>
    36f0:	5498                	lw	a4,40(s1)
    36f2:	86e1a623          	sw	a4,-1940(gp) # 20000314 <_timezone>
    36f6:	48bc                	lw	a5,80(s1)
    36f8:	8f99                	sub	a5,a5,a4
    36fa:	00f037b3          	snez	a5,a5
    36fe:	86f1a423          	sw	a5,-1944(gp) # 20000310 <_daylight>
    3702:	bbb5                	j	347e <_tzset_unlocked_r+0x54>
    3704:	02b00713          	li	a4,43
    3708:	4905                	li	s2,1
    370a:	eae79ae3          	bne	a5,a4,35be <_tzset_unlocked_r+0x194>
    370e:	0405                	addi	s0,s0,1
    3710:	b57d                	j	35be <_tzset_unlocked_r+0x194>
    3712:	873c                	lhu	a5,14(sp)
    3714:	03c00713          	li	a4,60
    3718:	6685                	lui	a3,0x1
    371a:	02e787b3          	mul	a5,a5,a4
    371e:	80b8                	lhu	a4,16(sp)
    3720:	e1068693          	addi	a3,a3,-496 # e10 <SPI_I2S_SendData+0x2>
    3724:	97ba                	add	a5,a5,a4
    3726:	8638                	lhu	a4,12(sp)
    3728:	02d70733          	mul	a4,a4,a3
    372c:	97ba                	add	a5,a5,a4
    372e:	032787b3          	mul	a5,a5,s2
    3732:	b5e1                	j	35fa <_tzset_unlocked_r+0x1d0>
    3734:	4985                	li	s3,1
    3736:	bde9                	j	3610 <_tzset_unlocked_r+0x1e6>
    3738:	04a00793          	li	a5,74
    373c:	04400b93          	li	s7,68
    3740:	00fb1563          	bne	s6,a5,374a <_tzset_unlocked_r+0x320>
    3744:	0405                	addi	s0,s0,1
    3746:	04a00b93          	li	s7,74
    374a:	4629                	li	a2,10
    374c:	086c                	addi	a1,sp,28
    374e:	8522                	mv	a0,s0
    3750:	46c010ef          	jal	ra,4bbc <strtoul>
    3754:	4b72                	lw	s6,28(sp)
    3756:	83e8                	sh	a0,22(sp)
    3758:	028b1763          	bne	s6,s0,3786 <_tzset_unlocked_r+0x35c>
    375c:	04d00793          	li	a5,77
    3760:	00099a63          	bnez	s3,3774 <_tzset_unlocked_r+0x34a>
    3764:	a49c                	sb	a5,8(s1)
    3766:	478d                	li	a5,3
    3768:	c4dc                	sw	a5,12(s1)
    376a:	4789                	li	a5,2
    376c:	c89c                	sw	a5,16(s1)
    376e:	0004aa23          	sw	zero,20(s1)
    3772:	bf21                	j	368a <_tzset_unlocked_r+0x260>
    3774:	02f48823          	sb	a5,48(s1)
    3778:	47ad                	li	a5,11
    377a:	d8dc                	sw	a5,52(s1)
    377c:	4785                	li	a5,1
    377e:	dc9c                	sw	a5,56(s1)
    3780:	0204ae23          	sw	zero,60(s1)
    3784:	b719                	j	368a <_tzset_unlocked_r+0x260>
    3786:	01557533          	and	a0,a0,s5
    378a:	01790023          	sb	s7,0(s2)
    378e:	00a92623          	sw	a0,12(s2)
    3792:	bde5                	j	368a <_tzset_unlocked_r+0x260>

00003794 <_vsniprintf_r>:
    3794:	7119                	addi	sp,sp,-128
    3796:	dca2                	sw	s0,120(sp)
    3798:	de86                	sw	ra,124(sp)
    379a:	daa6                	sw	s1,116(sp)
    379c:	8432                	mv	s0,a2
    379e:	00065b63          	bgez	a2,37b4 <_vsniprintf_r+0x20>
    37a2:	08b00793          	li	a5,139
    37a6:	c11c                	sw	a5,0(a0)
    37a8:	557d                	li	a0,-1
    37aa:	50f6                	lw	ra,124(sp)
    37ac:	5466                	lw	s0,120(sp)
    37ae:	54d6                	lw	s1,116(sp)
    37b0:	6109                	addi	sp,sp,128
    37b2:	8082                	ret
    37b4:	8636                	mv	a2,a3
    37b6:	20800693          	li	a3,520
    37ba:	c42e                	sw	a1,8(sp)
    37bc:	cc2e                	sw	a1,24(sp)
    37be:	82f4                	sh	a3,20(sp)
    37c0:	4581                	li	a1,0
    37c2:	c019                	beqz	s0,37c8 <_vsniprintf_r+0x34>
    37c4:	fff40593          	addi	a1,s0,-1
    37c8:	57fd                	li	a5,-1
    37ca:	c82e                	sw	a1,16(sp)
    37cc:	ce2e                	sw	a1,28(sp)
    37ce:	86ba                	mv	a3,a4
    37d0:	002c                	addi	a1,sp,8
    37d2:	83fc                	sh	a5,22(sp)
    37d4:	84aa                	mv	s1,a0
    37d6:	059000ef          	jal	ra,402e <_svfiprintf_r>
    37da:	57fd                	li	a5,-1
    37dc:	00f55563          	bge	a0,a5,37e6 <_vsniprintf_r+0x52>
    37e0:	08b00793          	li	a5,139
    37e4:	c09c                	sw	a5,0(s1)
    37e6:	d071                	beqz	s0,37aa <_vsniprintf_r+0x16>
    37e8:	47a2                	lw	a5,8(sp)
    37ea:	00078023          	sb	zero,0(a5)
    37ee:	bf75                	j	37aa <_vsniprintf_r+0x16>

000037f0 <vsniprintf>:
    37f0:	80c18793          	addi	a5,gp,-2036 # 200002b4 <_impure_ptr>
    37f4:	8736                	mv	a4,a3
    37f6:	86b2                	mv	a3,a2
    37f8:	862e                	mv	a2,a1
    37fa:	85aa                	mv	a1,a0
    37fc:	4388                	lw	a0,0(a5)
    37fe:	f97ff06f          	j	3794 <_vsniprintf_r>

00003802 <__swbuf_r>:
    3802:	1101                	addi	sp,sp,-32
    3804:	cc22                	sw	s0,24(sp)
    3806:	ca26                	sw	s1,20(sp)
    3808:	c84a                	sw	s2,16(sp)
    380a:	ce06                	sw	ra,28(sp)
    380c:	c64e                	sw	s3,12(sp)
    380e:	84aa                	mv	s1,a0
    3810:	892e                	mv	s2,a1
    3812:	8432                	mv	s0,a2
    3814:	c501                	beqz	a0,381c <__swbuf_r+0x1a>
    3816:	4d1c                	lw	a5,24(a0)
    3818:	e391                	bnez	a5,381c <__swbuf_r+0x1a>
    381a:	2929                	jal	3c34 <__sinit>
    381c:	00003797          	auipc	a5,0x3
    3820:	94078793          	addi	a5,a5,-1728 # 615c <__sf_fake_stdin>
    3824:	06f41763          	bne	s0,a5,3892 <__swbuf_r+0x90>
    3828:	40c0                	lw	s0,4(s1)
    382a:	4c1c                	lw	a5,24(s0)
    382c:	c41c                	sw	a5,8(s0)
    382e:	245e                	lhu	a5,12(s0)
    3830:	8ba1                	andi	a5,a5,8
    3832:	c3c1                	beqz	a5,38b2 <__swbuf_r+0xb0>
    3834:	481c                	lw	a5,16(s0)
    3836:	cfb5                	beqz	a5,38b2 <__swbuf_r+0xb0>
    3838:	481c                	lw	a5,16(s0)
    383a:	4008                	lw	a0,0(s0)
    383c:	0ff97993          	andi	s3,s2,255
    3840:	0ff97913          	andi	s2,s2,255
    3844:	8d1d                	sub	a0,a0,a5
    3846:	485c                	lw	a5,20(s0)
    3848:	00f54663          	blt	a0,a5,3854 <__swbuf_r+0x52>
    384c:	85a2                	mv	a1,s0
    384e:	8526                	mv	a0,s1
    3850:	24d9                	jal	3b16 <_fflush_r>
    3852:	e525                	bnez	a0,38ba <__swbuf_r+0xb8>
    3854:	441c                	lw	a5,8(s0)
    3856:	0505                	addi	a0,a0,1
    3858:	17fd                	addi	a5,a5,-1
    385a:	c41c                	sw	a5,8(s0)
    385c:	401c                	lw	a5,0(s0)
    385e:	00178713          	addi	a4,a5,1
    3862:	c018                	sw	a4,0(s0)
    3864:	01378023          	sb	s3,0(a5)
    3868:	485c                	lw	a5,20(s0)
    386a:	00a78863          	beq	a5,a0,387a <__swbuf_r+0x78>
    386e:	245e                	lhu	a5,12(s0)
    3870:	8b85                	andi	a5,a5,1
    3872:	cb81                	beqz	a5,3882 <__swbuf_r+0x80>
    3874:	47a9                	li	a5,10
    3876:	00f91663          	bne	s2,a5,3882 <__swbuf_r+0x80>
    387a:	85a2                	mv	a1,s0
    387c:	8526                	mv	a0,s1
    387e:	2c61                	jal	3b16 <_fflush_r>
    3880:	ed0d                	bnez	a0,38ba <__swbuf_r+0xb8>
    3882:	40f2                	lw	ra,28(sp)
    3884:	4462                	lw	s0,24(sp)
    3886:	854a                	mv	a0,s2
    3888:	44d2                	lw	s1,20(sp)
    388a:	4942                	lw	s2,16(sp)
    388c:	49b2                	lw	s3,12(sp)
    388e:	6105                	addi	sp,sp,32
    3890:	8082                	ret
    3892:	00003797          	auipc	a5,0x3
    3896:	8ea78793          	addi	a5,a5,-1814 # 617c <__sf_fake_stdout>
    389a:	00f41463          	bne	s0,a5,38a2 <__swbuf_r+0xa0>
    389e:	4480                	lw	s0,8(s1)
    38a0:	b769                	j	382a <__swbuf_r+0x28>
    38a2:	00003797          	auipc	a5,0x3
    38a6:	89a78793          	addi	a5,a5,-1894 # 613c <__sf_fake_stderr>
    38aa:	f8f410e3          	bne	s0,a5,382a <__swbuf_r+0x28>
    38ae:	44c0                	lw	s0,12(s1)
    38b0:	bfad                	j	382a <__swbuf_r+0x28>
    38b2:	85a2                	mv	a1,s0
    38b4:	8526                	mv	a0,s1
    38b6:	2021                	jal	38be <__swsetup_r>
    38b8:	d141                	beqz	a0,3838 <__swbuf_r+0x36>
    38ba:	597d                	li	s2,-1
    38bc:	b7d9                	j	3882 <__swbuf_r+0x80>

000038be <__swsetup_r>:
    38be:	1141                	addi	sp,sp,-16
    38c0:	80c18793          	addi	a5,gp,-2036 # 200002b4 <_impure_ptr>
    38c4:	c226                	sw	s1,4(sp)
    38c6:	4384                	lw	s1,0(a5)
    38c8:	c422                	sw	s0,8(sp)
    38ca:	c04a                	sw	s2,0(sp)
    38cc:	c606                	sw	ra,12(sp)
    38ce:	892a                	mv	s2,a0
    38d0:	842e                	mv	s0,a1
    38d2:	c489                	beqz	s1,38dc <__swsetup_r+0x1e>
    38d4:	4c9c                	lw	a5,24(s1)
    38d6:	e399                	bnez	a5,38dc <__swsetup_r+0x1e>
    38d8:	8526                	mv	a0,s1
    38da:	2ea9                	jal	3c34 <__sinit>
    38dc:	00003797          	auipc	a5,0x3
    38e0:	88078793          	addi	a5,a5,-1920 # 615c <__sf_fake_stdin>
    38e4:	02f41b63          	bne	s0,a5,391a <__swsetup_r+0x5c>
    38e8:	40c0                	lw	s0,4(s1)
    38ea:	00c41703          	lh	a4,12(s0)
    38ee:	01071793          	slli	a5,a4,0x10
    38f2:	83c1                	srli	a5,a5,0x10
    38f4:	0087f693          	andi	a3,a5,8
    38f8:	eab5                	bnez	a3,396c <__swsetup_r+0xae>
    38fa:	0107f693          	andi	a3,a5,16
    38fe:	ee95                	bnez	a3,393a <__swsetup_r+0x7c>
    3900:	47a5                	li	a5,9
    3902:	00f92023          	sw	a5,0(s2)
    3906:	04076713          	ori	a4,a4,64
    390a:	a45a                	sh	a4,12(s0)
    390c:	557d                	li	a0,-1
    390e:	40b2                	lw	ra,12(sp)
    3910:	4422                	lw	s0,8(sp)
    3912:	4492                	lw	s1,4(sp)
    3914:	4902                	lw	s2,0(sp)
    3916:	0141                	addi	sp,sp,16
    3918:	8082                	ret
    391a:	00003797          	auipc	a5,0x3
    391e:	86278793          	addi	a5,a5,-1950 # 617c <__sf_fake_stdout>
    3922:	00f41463          	bne	s0,a5,392a <__swsetup_r+0x6c>
    3926:	4480                	lw	s0,8(s1)
    3928:	b7c9                	j	38ea <__swsetup_r+0x2c>
    392a:	00003797          	auipc	a5,0x3
    392e:	81278793          	addi	a5,a5,-2030 # 613c <__sf_fake_stderr>
    3932:	faf41ce3          	bne	s0,a5,38ea <__swsetup_r+0x2c>
    3936:	44c0                	lw	s0,12(s1)
    3938:	bf4d                	j	38ea <__swsetup_r+0x2c>
    393a:	8b91                	andi	a5,a5,4
    393c:	c785                	beqz	a5,3964 <__swsetup_r+0xa6>
    393e:	584c                	lw	a1,52(s0)
    3940:	c991                	beqz	a1,3954 <__swsetup_r+0x96>
    3942:	04440793          	addi	a5,s0,68
    3946:	00f58563          	beq	a1,a5,3950 <__swsetup_r+0x92>
    394a:	854a                	mv	a0,s2
    394c:	e90ff0ef          	jal	ra,2fdc <_free_r>
    3950:	02042a23          	sw	zero,52(s0)
    3954:	245e                	lhu	a5,12(s0)
    3956:	00042223          	sw	zero,4(s0)
    395a:	fdb7f793          	andi	a5,a5,-37
    395e:	a45e                	sh	a5,12(s0)
    3960:	481c                	lw	a5,16(s0)
    3962:	c01c                	sw	a5,0(s0)
    3964:	245e                	lhu	a5,12(s0)
    3966:	0087e793          	ori	a5,a5,8
    396a:	a45e                	sh	a5,12(s0)
    396c:	481c                	lw	a5,16(s0)
    396e:	eb99                	bnez	a5,3984 <__swsetup_r+0xc6>
    3970:	245e                	lhu	a5,12(s0)
    3972:	20000713          	li	a4,512
    3976:	2807f793          	andi	a5,a5,640
    397a:	00e78563          	beq	a5,a4,3984 <__swsetup_r+0xc6>
    397e:	85a2                	mv	a1,s0
    3980:	854a                	mv	a0,s2
    3982:	2b05                	jal	3eb2 <__smakebuf_r>
    3984:	245e                	lhu	a5,12(s0)
    3986:	0017f713          	andi	a4,a5,1
    398a:	c31d                	beqz	a4,39b0 <__swsetup_r+0xf2>
    398c:	485c                	lw	a5,20(s0)
    398e:	00042423          	sw	zero,8(s0)
    3992:	40f007b3          	neg	a5,a5
    3996:	cc1c                	sw	a5,24(s0)
    3998:	481c                	lw	a5,16(s0)
    399a:	4501                	li	a0,0
    399c:	fbad                	bnez	a5,390e <__swsetup_r+0x50>
    399e:	00c41783          	lh	a5,12(s0)
    39a2:	0807f713          	andi	a4,a5,128
    39a6:	d725                	beqz	a4,390e <__swsetup_r+0x50>
    39a8:	0407e793          	ori	a5,a5,64
    39ac:	a45e                	sh	a5,12(s0)
    39ae:	bfb9                	j	390c <__swsetup_r+0x4e>
    39b0:	8b89                	andi	a5,a5,2
    39b2:	4701                	li	a4,0
    39b4:	e391                	bnez	a5,39b8 <__swsetup_r+0xfa>
    39b6:	4858                	lw	a4,20(s0)
    39b8:	c418                	sw	a4,8(s0)
    39ba:	bff9                	j	3998 <__swsetup_r+0xda>

000039bc <div>:
    39bc:	1141                	addi	sp,sp,-16
    39be:	02b54733          	div	a4,a0,a1
    39c2:	02b567b3          	rem	a5,a0,a1
    39c6:	00054a63          	bltz	a0,39da <div+0x1e>
    39ca:	0007d463          	bgez	a5,39d2 <div+0x16>
    39ce:	0705                	addi	a4,a4,1
    39d0:	8f8d                	sub	a5,a5,a1
    39d2:	853a                	mv	a0,a4
    39d4:	85be                	mv	a1,a5
    39d6:	0141                	addi	sp,sp,16
    39d8:	8082                	ret
    39da:	fef05ce3          	blez	a5,39d2 <div+0x16>
    39de:	177d                	addi	a4,a4,-1
    39e0:	97ae                	add	a5,a5,a1
    39e2:	bfc5                	j	39d2 <div+0x16>

000039e4 <__sflush_r>:
    39e4:	25de                	lhu	a5,12(a1)
    39e6:	1101                	addi	sp,sp,-32
    39e8:	cc22                	sw	s0,24(sp)
    39ea:	ca26                	sw	s1,20(sp)
    39ec:	ce06                	sw	ra,28(sp)
    39ee:	c84a                	sw	s2,16(sp)
    39f0:	c64e                	sw	s3,12(sp)
    39f2:	0087f713          	andi	a4,a5,8
    39f6:	84aa                	mv	s1,a0
    39f8:	842e                	mv	s0,a1
    39fa:	ef61                	bnez	a4,3ad2 <__sflush_r+0xee>
    39fc:	41d8                	lw	a4,4(a1)
    39fe:	00e04d63          	bgtz	a4,3a18 <__sflush_r+0x34>
    3a02:	41b8                	lw	a4,64(a1)
    3a04:	00e04a63          	bgtz	a4,3a18 <__sflush_r+0x34>
    3a08:	4501                	li	a0,0
    3a0a:	40f2                	lw	ra,28(sp)
    3a0c:	4462                	lw	s0,24(sp)
    3a0e:	44d2                	lw	s1,20(sp)
    3a10:	4942                	lw	s2,16(sp)
    3a12:	49b2                	lw	s3,12(sp)
    3a14:	6105                	addi	sp,sp,32
    3a16:	8082                	ret
    3a18:	5458                	lw	a4,44(s0)
    3a1a:	d77d                	beqz	a4,3a08 <__sflush_r+0x24>
    3a1c:	0004a903          	lw	s2,0(s1)
    3a20:	01379693          	slli	a3,a5,0x13
    3a24:	0004a023          	sw	zero,0(s1)
    3a28:	0606dc63          	bgez	a3,3aa0 <__sflush_r+0xbc>
    3a2c:	4870                	lw	a2,84(s0)
    3a2e:	245e                	lhu	a5,12(s0)
    3a30:	8b91                	andi	a5,a5,4
    3a32:	c799                	beqz	a5,3a40 <__sflush_r+0x5c>
    3a34:	405c                	lw	a5,4(s0)
    3a36:	8e1d                	sub	a2,a2,a5
    3a38:	585c                	lw	a5,52(s0)
    3a3a:	c399                	beqz	a5,3a40 <__sflush_r+0x5c>
    3a3c:	403c                	lw	a5,64(s0)
    3a3e:	8e1d                	sub	a2,a2,a5
    3a40:	545c                	lw	a5,44(s0)
    3a42:	500c                	lw	a1,32(s0)
    3a44:	4681                	li	a3,0
    3a46:	8526                	mv	a0,s1
    3a48:	9782                	jalr	a5
    3a4a:	57fd                	li	a5,-1
    3a4c:	245a                	lhu	a4,12(s0)
    3a4e:	00f51d63          	bne	a0,a5,3a68 <__sflush_r+0x84>
    3a52:	4094                	lw	a3,0(s1)
    3a54:	47f5                	li	a5,29
    3a56:	06d7e963          	bltu	a5,a3,3ac8 <__sflush_r+0xe4>
    3a5a:	204007b7          	lui	a5,0x20400
    3a5e:	0785                	addi	a5,a5,1
    3a60:	00d7d7b3          	srl	a5,a5,a3
    3a64:	8b85                	andi	a5,a5,1
    3a66:	c3ad                	beqz	a5,3ac8 <__sflush_r+0xe4>
    3a68:	481c                	lw	a5,16(s0)
    3a6a:	00042223          	sw	zero,4(s0)
    3a6e:	c01c                	sw	a5,0(s0)
    3a70:	01371793          	slli	a5,a4,0x13
    3a74:	0007d863          	bgez	a5,3a84 <__sflush_r+0xa0>
    3a78:	57fd                	li	a5,-1
    3a7a:	00f51463          	bne	a0,a5,3a82 <__sflush_r+0x9e>
    3a7e:	409c                	lw	a5,0(s1)
    3a80:	e391                	bnez	a5,3a84 <__sflush_r+0xa0>
    3a82:	c868                	sw	a0,84(s0)
    3a84:	584c                	lw	a1,52(s0)
    3a86:	0124a023          	sw	s2,0(s1)
    3a8a:	ddbd                	beqz	a1,3a08 <__sflush_r+0x24>
    3a8c:	04440793          	addi	a5,s0,68
    3a90:	00f58563          	beq	a1,a5,3a9a <__sflush_r+0xb6>
    3a94:	8526                	mv	a0,s1
    3a96:	d46ff0ef          	jal	ra,2fdc <_free_r>
    3a9a:	02042a23          	sw	zero,52(s0)
    3a9e:	b7ad                	j	3a08 <__sflush_r+0x24>
    3aa0:	500c                	lw	a1,32(s0)
    3aa2:	4601                	li	a2,0
    3aa4:	4685                	li	a3,1
    3aa6:	8526                	mv	a0,s1
    3aa8:	9702                	jalr	a4
    3aaa:	57fd                	li	a5,-1
    3aac:	862a                	mv	a2,a0
    3aae:	f8f510e3          	bne	a0,a5,3a2e <__sflush_r+0x4a>
    3ab2:	409c                	lw	a5,0(s1)
    3ab4:	dfad                	beqz	a5,3a2e <__sflush_r+0x4a>
    3ab6:	4775                	li	a4,29
    3ab8:	00e78563          	beq	a5,a4,3ac2 <__sflush_r+0xde>
    3abc:	4759                	li	a4,22
    3abe:	04e79363          	bne	a5,a4,3b04 <__sflush_r+0x120>
    3ac2:	0124a023          	sw	s2,0(s1)
    3ac6:	b789                	j	3a08 <__sflush_r+0x24>
    3ac8:	04076713          	ori	a4,a4,64
    3acc:	a45a                	sh	a4,12(s0)
    3ace:	557d                	li	a0,-1
    3ad0:	bf2d                	j	3a0a <__sflush_r+0x26>
    3ad2:	0105a983          	lw	s3,16(a1)
    3ad6:	f20989e3          	beqz	s3,3a08 <__sflush_r+0x24>
    3ada:	0005a903          	lw	s2,0(a1)
    3ade:	8b8d                	andi	a5,a5,3
    3ae0:	0135a023          	sw	s3,0(a1)
    3ae4:	41390933          	sub	s2,s2,s3
    3ae8:	4701                	li	a4,0
    3aea:	e391                	bnez	a5,3aee <__sflush_r+0x10a>
    3aec:	49d8                	lw	a4,20(a1)
    3aee:	c418                	sw	a4,8(s0)
    3af0:	f1205ce3          	blez	s2,3a08 <__sflush_r+0x24>
    3af4:	541c                	lw	a5,40(s0)
    3af6:	500c                	lw	a1,32(s0)
    3af8:	86ca                	mv	a3,s2
    3afa:	864e                	mv	a2,s3
    3afc:	8526                	mv	a0,s1
    3afe:	9782                	jalr	a5
    3b00:	00a04763          	bgtz	a0,3b0e <__sflush_r+0x12a>
    3b04:	245e                	lhu	a5,12(s0)
    3b06:	0407e793          	ori	a5,a5,64
    3b0a:	a45e                	sh	a5,12(s0)
    3b0c:	b7c9                	j	3ace <__sflush_r+0xea>
    3b0e:	99aa                	add	s3,s3,a0
    3b10:	40a90933          	sub	s2,s2,a0
    3b14:	bff1                	j	3af0 <__sflush_r+0x10c>

00003b16 <_fflush_r>:
    3b16:	499c                	lw	a5,16(a1)
    3b18:	c3a5                	beqz	a5,3b78 <_fflush_r+0x62>
    3b1a:	1101                	addi	sp,sp,-32
    3b1c:	cc22                	sw	s0,24(sp)
    3b1e:	ce06                	sw	ra,28(sp)
    3b20:	842a                	mv	s0,a0
    3b22:	c511                	beqz	a0,3b2e <_fflush_r+0x18>
    3b24:	4d1c                	lw	a5,24(a0)
    3b26:	e781                	bnez	a5,3b2e <_fflush_r+0x18>
    3b28:	c62e                	sw	a1,12(sp)
    3b2a:	2229                	jal	3c34 <__sinit>
    3b2c:	45b2                	lw	a1,12(sp)
    3b2e:	00002797          	auipc	a5,0x2
    3b32:	62e78793          	addi	a5,a5,1582 # 615c <__sf_fake_stdin>
    3b36:	00f59c63          	bne	a1,a5,3b4e <_fflush_r+0x38>
    3b3a:	404c                	lw	a1,4(s0)
    3b3c:	00c59783          	lh	a5,12(a1)
    3b40:	c79d                	beqz	a5,3b6e <_fflush_r+0x58>
    3b42:	8522                	mv	a0,s0
    3b44:	4462                	lw	s0,24(sp)
    3b46:	40f2                	lw	ra,28(sp)
    3b48:	6105                	addi	sp,sp,32
    3b4a:	e9bff06f          	j	39e4 <__sflush_r>
    3b4e:	00002797          	auipc	a5,0x2
    3b52:	62e78793          	addi	a5,a5,1582 # 617c <__sf_fake_stdout>
    3b56:	00f59463          	bne	a1,a5,3b5e <_fflush_r+0x48>
    3b5a:	440c                	lw	a1,8(s0)
    3b5c:	b7c5                	j	3b3c <_fflush_r+0x26>
    3b5e:	00002797          	auipc	a5,0x2
    3b62:	5de78793          	addi	a5,a5,1502 # 613c <__sf_fake_stderr>
    3b66:	fcf59be3          	bne	a1,a5,3b3c <_fflush_r+0x26>
    3b6a:	444c                	lw	a1,12(s0)
    3b6c:	bfc1                	j	3b3c <_fflush_r+0x26>
    3b6e:	40f2                	lw	ra,28(sp)
    3b70:	4462                	lw	s0,24(sp)
    3b72:	4501                	li	a0,0
    3b74:	6105                	addi	sp,sp,32
    3b76:	8082                	ret
    3b78:	4501                	li	a0,0
    3b7a:	8082                	ret

00003b7c <std>:
    3b7c:	1141                	addi	sp,sp,-16
    3b7e:	c422                	sw	s0,8(sp)
    3b80:	c606                	sw	ra,12(sp)
    3b82:	842a                	mv	s0,a0
    3b84:	a54e                	sh	a1,12(a0)
    3b86:	a572                	sh	a2,14(a0)
    3b88:	00052023          	sw	zero,0(a0)
    3b8c:	00052223          	sw	zero,4(a0)
    3b90:	00052423          	sw	zero,8(a0)
    3b94:	06052223          	sw	zero,100(a0)
    3b98:	00052823          	sw	zero,16(a0)
    3b9c:	00052a23          	sw	zero,20(a0)
    3ba0:	00052c23          	sw	zero,24(a0)
    3ba4:	4621                	li	a2,8
    3ba6:	4581                	li	a1,0
    3ba8:	05c50513          	addi	a0,a0,92
    3bac:	e74fc0ef          	jal	ra,220 <memset>
    3bb0:	00001797          	auipc	a5,0x1
    3bb4:	de078793          	addi	a5,a5,-544 # 4990 <__sread>
    3bb8:	d05c                	sw	a5,36(s0)
    3bba:	00001797          	auipc	a5,0x1
    3bbe:	e0878793          	addi	a5,a5,-504 # 49c2 <__swrite>
    3bc2:	d41c                	sw	a5,40(s0)
    3bc4:	00001797          	auipc	a5,0x1
    3bc8:	e4678793          	addi	a5,a5,-442 # 4a0a <__sseek>
    3bcc:	d45c                	sw	a5,44(s0)
    3bce:	00001797          	auipc	a5,0x1
    3bd2:	e6c78793          	addi	a5,a5,-404 # 4a3a <__sclose>
    3bd6:	d000                	sw	s0,32(s0)
    3bd8:	d81c                	sw	a5,48(s0)
    3bda:	40b2                	lw	ra,12(sp)
    3bdc:	4422                	lw	s0,8(sp)
    3bde:	0141                	addi	sp,sp,16
    3be0:	8082                	ret

00003be2 <_cleanup_r>:
    3be2:	00000597          	auipc	a1,0x0
    3be6:	f3458593          	addi	a1,a1,-204 # 3b16 <_fflush_r>
    3bea:	aa99                	j	3d40 <_fwalk_reent>

00003bec <__sfmoreglue>:
    3bec:	1141                	addi	sp,sp,-16
    3bee:	c226                	sw	s1,4(sp)
    3bf0:	06800613          	li	a2,104
    3bf4:	fff58493          	addi	s1,a1,-1
    3bf8:	02c484b3          	mul	s1,s1,a2
    3bfc:	c04a                	sw	s2,0(sp)
    3bfe:	892e                	mv	s2,a1
    3c00:	c422                	sw	s0,8(sp)
    3c02:	c606                	sw	ra,12(sp)
    3c04:	07448593          	addi	a1,s1,116
    3c08:	c7cff0ef          	jal	ra,3084 <_malloc_r>
    3c0c:	842a                	mv	s0,a0
    3c0e:	cd01                	beqz	a0,3c26 <__sfmoreglue+0x3a>
    3c10:	00052023          	sw	zero,0(a0)
    3c14:	01252223          	sw	s2,4(a0)
    3c18:	0531                	addi	a0,a0,12
    3c1a:	c408                	sw	a0,8(s0)
    3c1c:	06848613          	addi	a2,s1,104
    3c20:	4581                	li	a1,0
    3c22:	dfefc0ef          	jal	ra,220 <memset>
    3c26:	8522                	mv	a0,s0
    3c28:	40b2                	lw	ra,12(sp)
    3c2a:	4422                	lw	s0,8(sp)
    3c2c:	4492                	lw	s1,4(sp)
    3c2e:	4902                	lw	s2,0(sp)
    3c30:	0141                	addi	sp,sp,16
    3c32:	8082                	ret

00003c34 <__sinit>:
    3c34:	4d1c                	lw	a5,24(a0)
    3c36:	e7a5                	bnez	a5,3c9e <__sinit+0x6a>
    3c38:	1141                	addi	sp,sp,-16
    3c3a:	c606                	sw	ra,12(sp)
    3c3c:	c422                	sw	s0,8(sp)
    3c3e:	00000797          	auipc	a5,0x0
    3c42:	fa478793          	addi	a5,a5,-92 # 3be2 <_cleanup_r>
    3c46:	d51c                	sw	a5,40(a0)
    3c48:	82c18793          	addi	a5,gp,-2004 # 200002d4 <_global_impure_ptr>
    3c4c:	439c                	lw	a5,0(a5)
    3c4e:	04052423          	sw	zero,72(a0)
    3c52:	04052623          	sw	zero,76(a0)
    3c56:	04052823          	sw	zero,80(a0)
    3c5a:	00f51463          	bne	a0,a5,3c62 <__sinit+0x2e>
    3c5e:	4785                	li	a5,1
    3c60:	cd1c                	sw	a5,24(a0)
    3c62:	842a                	mv	s0,a0
    3c64:	2835                	jal	3ca0 <__sfp>
    3c66:	c048                	sw	a0,4(s0)
    3c68:	8522                	mv	a0,s0
    3c6a:	281d                	jal	3ca0 <__sfp>
    3c6c:	c408                	sw	a0,8(s0)
    3c6e:	8522                	mv	a0,s0
    3c70:	2805                	jal	3ca0 <__sfp>
    3c72:	c448                	sw	a0,12(s0)
    3c74:	4048                	lw	a0,4(s0)
    3c76:	4601                	li	a2,0
    3c78:	4591                	li	a1,4
    3c7a:	f03ff0ef          	jal	ra,3b7c <std>
    3c7e:	4408                	lw	a0,8(s0)
    3c80:	4605                	li	a2,1
    3c82:	45a5                	li	a1,9
    3c84:	ef9ff0ef          	jal	ra,3b7c <std>
    3c88:	4448                	lw	a0,12(s0)
    3c8a:	4609                	li	a2,2
    3c8c:	45c9                	li	a1,18
    3c8e:	eefff0ef          	jal	ra,3b7c <std>
    3c92:	4785                	li	a5,1
    3c94:	cc1c                	sw	a5,24(s0)
    3c96:	40b2                	lw	ra,12(sp)
    3c98:	4422                	lw	s0,8(sp)
    3c9a:	0141                	addi	sp,sp,16
    3c9c:	8082                	ret
    3c9e:	8082                	ret

00003ca0 <__sfp>:
    3ca0:	1141                	addi	sp,sp,-16
    3ca2:	82c18793          	addi	a5,gp,-2004 # 200002d4 <_global_impure_ptr>
    3ca6:	c226                	sw	s1,4(sp)
    3ca8:	4384                	lw	s1,0(a5)
    3caa:	c04a                	sw	s2,0(sp)
    3cac:	c606                	sw	ra,12(sp)
    3cae:	4c9c                	lw	a5,24(s1)
    3cb0:	c422                	sw	s0,8(sp)
    3cb2:	892a                	mv	s2,a0
    3cb4:	e781                	bnez	a5,3cbc <__sfp+0x1c>
    3cb6:	8526                	mv	a0,s1
    3cb8:	f7dff0ef          	jal	ra,3c34 <__sinit>
    3cbc:	04848493          	addi	s1,s1,72
    3cc0:	4480                	lw	s0,8(s1)
    3cc2:	40dc                	lw	a5,4(s1)
    3cc4:	17fd                	addi	a5,a5,-1
    3cc6:	0007d663          	bgez	a5,3cd2 <__sfp+0x32>
    3cca:	409c                	lw	a5,0(s1)
    3ccc:	cfb9                	beqz	a5,3d2a <__sfp+0x8a>
    3cce:	4084                	lw	s1,0(s1)
    3cd0:	bfc5                	j	3cc0 <__sfp+0x20>
    3cd2:	00c41703          	lh	a4,12(s0)
    3cd6:	e739                	bnez	a4,3d24 <__sfp+0x84>
    3cd8:	77c1                	lui	a5,0xffff0
    3cda:	0785                	addi	a5,a5,1
    3cdc:	06042223          	sw	zero,100(s0)
    3ce0:	00042023          	sw	zero,0(s0)
    3ce4:	00042223          	sw	zero,4(s0)
    3ce8:	00042423          	sw	zero,8(s0)
    3cec:	c45c                	sw	a5,12(s0)
    3cee:	00042823          	sw	zero,16(s0)
    3cf2:	00042a23          	sw	zero,20(s0)
    3cf6:	00042c23          	sw	zero,24(s0)
    3cfa:	4621                	li	a2,8
    3cfc:	4581                	li	a1,0
    3cfe:	05c40513          	addi	a0,s0,92
    3d02:	d1efc0ef          	jal	ra,220 <memset>
    3d06:	02042a23          	sw	zero,52(s0)
    3d0a:	02042c23          	sw	zero,56(s0)
    3d0e:	04042423          	sw	zero,72(s0)
    3d12:	04042623          	sw	zero,76(s0)
    3d16:	8522                	mv	a0,s0
    3d18:	40b2                	lw	ra,12(sp)
    3d1a:	4422                	lw	s0,8(sp)
    3d1c:	4492                	lw	s1,4(sp)
    3d1e:	4902                	lw	s2,0(sp)
    3d20:	0141                	addi	sp,sp,16
    3d22:	8082                	ret
    3d24:	06840413          	addi	s0,s0,104
    3d28:	bf71                	j	3cc4 <__sfp+0x24>
    3d2a:	4591                	li	a1,4
    3d2c:	854a                	mv	a0,s2
    3d2e:	ebfff0ef          	jal	ra,3bec <__sfmoreglue>
    3d32:	c088                	sw	a0,0(s1)
    3d34:	fd49                	bnez	a0,3cce <__sfp+0x2e>
    3d36:	47b1                	li	a5,12
    3d38:	00f92023          	sw	a5,0(s2)
    3d3c:	4401                	li	s0,0
    3d3e:	bfe1                	j	3d16 <__sfp+0x76>

00003d40 <_fwalk_reent>:
    3d40:	7179                	addi	sp,sp,-48
    3d42:	d422                	sw	s0,40(sp)
    3d44:	d04a                	sw	s2,32(sp)
    3d46:	cc52                	sw	s4,24(sp)
    3d48:	ca56                	sw	s5,20(sp)
    3d4a:	c85a                	sw	s6,16(sp)
    3d4c:	c65e                	sw	s7,12(sp)
    3d4e:	d606                	sw	ra,44(sp)
    3d50:	d226                	sw	s1,36(sp)
    3d52:	ce4e                	sw	s3,28(sp)
    3d54:	8a2a                	mv	s4,a0
    3d56:	8aae                	mv	s5,a1
    3d58:	04850413          	addi	s0,a0,72
    3d5c:	4901                	li	s2,0
    3d5e:	4b05                	li	s6,1
    3d60:	5bfd                	li	s7,-1
    3d62:	ec09                	bnez	s0,3d7c <_fwalk_reent+0x3c>
    3d64:	50b2                	lw	ra,44(sp)
    3d66:	5422                	lw	s0,40(sp)
    3d68:	854a                	mv	a0,s2
    3d6a:	5492                	lw	s1,36(sp)
    3d6c:	5902                	lw	s2,32(sp)
    3d6e:	49f2                	lw	s3,28(sp)
    3d70:	4a62                	lw	s4,24(sp)
    3d72:	4ad2                	lw	s5,20(sp)
    3d74:	4b42                	lw	s6,16(sp)
    3d76:	4bb2                	lw	s7,12(sp)
    3d78:	6145                	addi	sp,sp,48
    3d7a:	8082                	ret
    3d7c:	4404                	lw	s1,8(s0)
    3d7e:	00442983          	lw	s3,4(s0)
    3d82:	19fd                	addi	s3,s3,-1
    3d84:	0009d463          	bgez	s3,3d8c <_fwalk_reent+0x4c>
    3d88:	4000                	lw	s0,0(s0)
    3d8a:	bfe1                	j	3d62 <_fwalk_reent+0x22>
    3d8c:	24de                	lhu	a5,12(s1)
    3d8e:	00fb7b63          	bgeu	s6,a5,3da4 <_fwalk_reent+0x64>
    3d92:	00e49783          	lh	a5,14(s1)
    3d96:	01778763          	beq	a5,s7,3da4 <_fwalk_reent+0x64>
    3d9a:	85a6                	mv	a1,s1
    3d9c:	8552                	mv	a0,s4
    3d9e:	9a82                	jalr	s5
    3da0:	00a96933          	or	s2,s2,a0
    3da4:	06848493          	addi	s1,s1,104
    3da8:	bfe9                	j	3d82 <_fwalk_reent+0x42>

00003daa <_findenv_r>:
    3daa:	7179                	addi	sp,sp,-48
    3dac:	d422                	sw	s0,40(sp)
    3dae:	cc52                	sw	s4,24(sp)
    3db0:	ca56                	sw	s5,20(sp)
    3db2:	c85a                	sw	s6,16(sp)
    3db4:	d606                	sw	ra,44(sp)
    3db6:	d226                	sw	s1,36(sp)
    3db8:	d04a                	sw	s2,32(sp)
    3dba:	ce4e                	sw	s3,28(sp)
    3dbc:	c65e                	sw	s7,12(sp)
    3dbe:	8aaa                	mv	s5,a0
    3dc0:	8a2e                	mv	s4,a1
    3dc2:	8b32                	mv	s6,a2
    3dc4:	67f000ef          	jal	ra,4c42 <__env_lock>
    3dc8:	81818793          	addi	a5,gp,-2024 # 200002c0 <environ>
    3dcc:	4380                	lw	s0,0(a5)
    3dce:	e415                	bnez	s0,3dfa <_findenv_r+0x50>
    3dd0:	8556                	mv	a0,s5
    3dd2:	673000ef          	jal	ra,4c44 <__env_unlock>
    3dd6:	4501                	li	a0,0
    3dd8:	50b2                	lw	ra,44(sp)
    3dda:	5422                	lw	s0,40(sp)
    3ddc:	5492                	lw	s1,36(sp)
    3dde:	5902                	lw	s2,32(sp)
    3de0:	49f2                	lw	s3,28(sp)
    3de2:	4a62                	lw	s4,24(sp)
    3de4:	4ad2                	lw	s5,20(sp)
    3de6:	4b42                	lw	s6,16(sp)
    3de8:	4bb2                	lw	s7,12(sp)
    3dea:	6145                	addi	sp,sp,48
    3dec:	8082                	ret
    3dee:	0605                	addi	a2,a2,1
    3df0:	221c                	lbu	a5,0(a2)
    3df2:	c3b1                	beqz	a5,3e36 <_findenv_r+0x8c>
    3df4:	fee79de3          	bne	a5,a4,3dee <_findenv_r+0x44>
    3df8:	bfe1                	j	3dd0 <_findenv_r+0x26>
    3dfa:	89be                	mv	s3,a5
    3dfc:	8652                	mv	a2,s4
    3dfe:	03d00713          	li	a4,61
    3e02:	b7fd                	j	3df0 <_findenv_r+0x46>
    3e04:	0411                	addi	s0,s0,4
    3e06:	4008                	lw	a0,0(s0)
    3e08:	d561                	beqz	a0,3dd0 <_findenv_r+0x26>
    3e0a:	864a                	mv	a2,s2
    3e0c:	85d2                	mv	a1,s4
    3e0e:	443000ef          	jal	ra,4a50 <strncmp>
    3e12:	f96d                	bnez	a0,3e04 <_findenv_r+0x5a>
    3e14:	4004                	lw	s1,0(s0)
    3e16:	94ca                	add	s1,s1,s2
    3e18:	209c                	lbu	a5,0(s1)
    3e1a:	ff7795e3          	bne	a5,s7,3e04 <_findenv_r+0x5a>
    3e1e:	0009a783          	lw	a5,0(s3) # 3000 <_free_r+0x24>
    3e22:	8556                	mv	a0,s5
    3e24:	8c1d                	sub	s0,s0,a5
    3e26:	8409                	srai	s0,s0,0x2
    3e28:	008b2023          	sw	s0,0(s6)
    3e2c:	619000ef          	jal	ra,4c44 <__env_unlock>
    3e30:	00148513          	addi	a0,s1,1
    3e34:	b755                	j	3dd8 <_findenv_r+0x2e>
    3e36:	41460933          	sub	s2,a2,s4
    3e3a:	03d00b93          	li	s7,61
    3e3e:	b7e1                	j	3e06 <_findenv_r+0x5c>

00003e40 <_getenv_r>:
    3e40:	1101                	addi	sp,sp,-32
    3e42:	0070                	addi	a2,sp,12
    3e44:	ce06                	sw	ra,28(sp)
    3e46:	f65ff0ef          	jal	ra,3daa <_findenv_r>
    3e4a:	40f2                	lw	ra,28(sp)
    3e4c:	6105                	addi	sp,sp,32
    3e4e:	8082                	ret

00003e50 <__gettzinfo>:
    3e50:	1fffc517          	auipc	a0,0x1fffc
    3e54:	29050513          	addi	a0,a0,656 # 200000e0 <tzinfo>
    3e58:	8082                	ret

00003e5a <__swhatbuf_r>:
    3e5a:	7119                	addi	sp,sp,-128
    3e5c:	daa6                	sw	s1,116(sp)
    3e5e:	84ae                	mv	s1,a1
    3e60:	00e59583          	lh	a1,14(a1)
    3e64:	dca2                	sw	s0,120(sp)
    3e66:	de86                	sw	ra,124(sp)
    3e68:	8432                	mv	s0,a2
    3e6a:	0005db63          	bgez	a1,3e80 <__swhatbuf_r+0x26>
    3e6e:	24de                	lhu	a5,12(s1)
    3e70:	0006a023          	sw	zero,0(a3)
    3e74:	0807f793          	andi	a5,a5,128
    3e78:	e785                	bnez	a5,3ea0 <__swhatbuf_r+0x46>
    3e7a:	40000793          	li	a5,1024
    3e7e:	a01d                	j	3ea4 <__swhatbuf_r+0x4a>
    3e80:	0830                	addi	a2,sp,24
    3e82:	c636                	sw	a3,12(sp)
    3e84:	5c3000ef          	jal	ra,4c46 <_fstat_r>
    3e88:	46b2                	lw	a3,12(sp)
    3e8a:	fe0542e3          	bltz	a0,3e6e <__swhatbuf_r+0x14>
    3e8e:	4772                	lw	a4,28(sp)
    3e90:	67bd                	lui	a5,0xf
    3e92:	8ff9                	and	a5,a5,a4
    3e94:	7779                	lui	a4,0xffffe
    3e96:	97ba                	add	a5,a5,a4
    3e98:	0017b793          	seqz	a5,a5
    3e9c:	c29c                	sw	a5,0(a3)
    3e9e:	bff1                	j	3e7a <__swhatbuf_r+0x20>
    3ea0:	04000793          	li	a5,64
    3ea4:	c01c                	sw	a5,0(s0)
    3ea6:	50f6                	lw	ra,124(sp)
    3ea8:	5466                	lw	s0,120(sp)
    3eaa:	54d6                	lw	s1,116(sp)
    3eac:	4501                	li	a0,0
    3eae:	6109                	addi	sp,sp,128
    3eb0:	8082                	ret

00003eb2 <__smakebuf_r>:
    3eb2:	25de                	lhu	a5,12(a1)
    3eb4:	1101                	addi	sp,sp,-32
    3eb6:	cc22                	sw	s0,24(sp)
    3eb8:	ce06                	sw	ra,28(sp)
    3eba:	ca26                	sw	s1,20(sp)
    3ebc:	c84a                	sw	s2,16(sp)
    3ebe:	8b89                	andi	a5,a5,2
    3ec0:	842e                	mv	s0,a1
    3ec2:	cf89                	beqz	a5,3edc <__smakebuf_r+0x2a>
    3ec4:	04740793          	addi	a5,s0,71
    3ec8:	c01c                	sw	a5,0(s0)
    3eca:	c81c                	sw	a5,16(s0)
    3ecc:	4785                	li	a5,1
    3ece:	c85c                	sw	a5,20(s0)
    3ed0:	40f2                	lw	ra,28(sp)
    3ed2:	4462                	lw	s0,24(sp)
    3ed4:	44d2                	lw	s1,20(sp)
    3ed6:	4942                	lw	s2,16(sp)
    3ed8:	6105                	addi	sp,sp,32
    3eda:	8082                	ret
    3edc:	0074                	addi	a3,sp,12
    3ede:	0030                	addi	a2,sp,8
    3ee0:	84aa                	mv	s1,a0
    3ee2:	f79ff0ef          	jal	ra,3e5a <__swhatbuf_r>
    3ee6:	45a2                	lw	a1,8(sp)
    3ee8:	892a                	mv	s2,a0
    3eea:	8526                	mv	a0,s1
    3eec:	998ff0ef          	jal	ra,3084 <_malloc_r>
    3ef0:	e919                	bnez	a0,3f06 <__smakebuf_r+0x54>
    3ef2:	00c41783          	lh	a5,12(s0)
    3ef6:	2007f713          	andi	a4,a5,512
    3efa:	fb79                	bnez	a4,3ed0 <__smakebuf_r+0x1e>
    3efc:	9bf1                	andi	a5,a5,-4
    3efe:	0027e793          	ori	a5,a5,2
    3f02:	a45e                	sh	a5,12(s0)
    3f04:	b7c1                	j	3ec4 <__smakebuf_r+0x12>
    3f06:	00000797          	auipc	a5,0x0
    3f0a:	cdc78793          	addi	a5,a5,-804 # 3be2 <_cleanup_r>
    3f0e:	d49c                	sw	a5,40(s1)
    3f10:	245e                	lhu	a5,12(s0)
    3f12:	c008                	sw	a0,0(s0)
    3f14:	c808                	sw	a0,16(s0)
    3f16:	0807e793          	ori	a5,a5,128
    3f1a:	a45e                	sh	a5,12(s0)
    3f1c:	47a2                	lw	a5,8(sp)
    3f1e:	c85c                	sw	a5,20(s0)
    3f20:	47b2                	lw	a5,12(sp)
    3f22:	cf81                	beqz	a5,3f3a <__smakebuf_r+0x88>
    3f24:	00e41583          	lh	a1,14(s0)
    3f28:	8526                	mv	a0,s1
    3f2a:	551000ef          	jal	ra,4c7a <_isatty_r>
    3f2e:	c511                	beqz	a0,3f3a <__smakebuf_r+0x88>
    3f30:	245e                	lhu	a5,12(s0)
    3f32:	9bf1                	andi	a5,a5,-4
    3f34:	0017e793          	ori	a5,a5,1
    3f38:	a45e                	sh	a5,12(s0)
    3f3a:	245e                	lhu	a5,12(s0)
    3f3c:	00f96933          	or	s2,s2,a5
    3f40:	01241623          	sh	s2,12(s0)
    3f44:	b771                	j	3ed0 <__smakebuf_r+0x1e>

00003f46 <__malloc_lock>:
    3f46:	8082                	ret

00003f48 <__malloc_unlock>:
    3f48:	8082                	ret

00003f4a <__ssputs_r>:
    3f4a:	1101                	addi	sp,sp,-32
    3f4c:	c84a                	sw	s2,16(sp)
    3f4e:	0085a903          	lw	s2,8(a1)
    3f52:	cc22                	sw	s0,24(sp)
    3f54:	c452                	sw	s4,8(sp)
    3f56:	c05a                	sw	s6,0(sp)
    3f58:	ce06                	sw	ra,28(sp)
    3f5a:	ca26                	sw	s1,20(sp)
    3f5c:	c64e                	sw	s3,12(sp)
    3f5e:	c256                	sw	s5,4(sp)
    3f60:	842e                	mv	s0,a1
    3f62:	8b32                	mv	s6,a2
    3f64:	8a36                	mv	s4,a3
    3f66:	0926e963          	bltu	a3,s2,3ff8 <__ssputs_r+0xae>
    3f6a:	25de                	lhu	a5,12(a1)
    3f6c:	4807f713          	andi	a4,a5,1152
    3f70:	c351                	beqz	a4,3ff4 <__ssputs_r+0xaa>
    3f72:	4004                	lw	s1,0(s0)
    3f74:	498c                	lw	a1,16(a1)
    3f76:	4858                	lw	a4,20(s0)
    3f78:	8aaa                	mv	s5,a0
    3f7a:	40b489b3          	sub	s3,s1,a1
    3f7e:	448d                	li	s1,3
    3f80:	02e484b3          	mul	s1,s1,a4
    3f84:	4709                	li	a4,2
    3f86:	02e4c4b3          	div	s1,s1,a4
    3f8a:	00168713          	addi	a4,a3,1
    3f8e:	974e                	add	a4,a4,s3
    3f90:	00e4f363          	bgeu	s1,a4,3f96 <__ssputs_r+0x4c>
    3f94:	84ba                	mv	s1,a4
    3f96:	4007f793          	andi	a5,a5,1024
    3f9a:	cfbd                	beqz	a5,4018 <__ssputs_r+0xce>
    3f9c:	85a6                	mv	a1,s1
    3f9e:	8556                	mv	a0,s5
    3fa0:	8e4ff0ef          	jal	ra,3084 <_malloc_r>
    3fa4:	892a                	mv	s2,a0
    3fa6:	e11d                	bnez	a0,3fcc <__ssputs_r+0x82>
    3fa8:	47b1                	li	a5,12
    3faa:	00faa023          	sw	a5,0(s5) # 10000 <_data_lma+0x9b94>
    3fae:	245e                	lhu	a5,12(s0)
    3fb0:	557d                	li	a0,-1
    3fb2:	0407e793          	ori	a5,a5,64
    3fb6:	a45e                	sh	a5,12(s0)
    3fb8:	40f2                	lw	ra,28(sp)
    3fba:	4462                	lw	s0,24(sp)
    3fbc:	44d2                	lw	s1,20(sp)
    3fbe:	4942                	lw	s2,16(sp)
    3fc0:	49b2                	lw	s3,12(sp)
    3fc2:	4a22                	lw	s4,8(sp)
    3fc4:	4a92                	lw	s5,4(sp)
    3fc6:	4b02                	lw	s6,0(sp)
    3fc8:	6105                	addi	sp,sp,32
    3fca:	8082                	ret
    3fcc:	480c                	lw	a1,16(s0)
    3fce:	864e                	mv	a2,s3
    3fd0:	a3bfe0ef          	jal	ra,2a0a <memcpy>
    3fd4:	245e                	lhu	a5,12(s0)
    3fd6:	b7f7f793          	andi	a5,a5,-1153
    3fda:	0807e793          	ori	a5,a5,128
    3fde:	a45e                	sh	a5,12(s0)
    3fe0:	01242823          	sw	s2,16(s0)
    3fe4:	c844                	sw	s1,20(s0)
    3fe6:	994e                	add	s2,s2,s3
    3fe8:	413484b3          	sub	s1,s1,s3
    3fec:	01242023          	sw	s2,0(s0)
    3ff0:	c404                	sw	s1,8(s0)
    3ff2:	8952                	mv	s2,s4
    3ff4:	012a7363          	bgeu	s4,s2,3ffa <__ssputs_r+0xb0>
    3ff8:	8952                	mv	s2,s4
    3ffa:	4008                	lw	a0,0(s0)
    3ffc:	864a                	mv	a2,s2
    3ffe:	85da                	mv	a1,s6
    4000:	54b000ef          	jal	ra,4d4a <memmove>
    4004:	441c                	lw	a5,8(s0)
    4006:	4501                	li	a0,0
    4008:	412787b3          	sub	a5,a5,s2
    400c:	c41c                	sw	a5,8(s0)
    400e:	401c                	lw	a5,0(s0)
    4010:	993e                	add	s2,s2,a5
    4012:	01242023          	sw	s2,0(s0)
    4016:	b74d                	j	3fb8 <__ssputs_r+0x6e>
    4018:	8626                	mv	a2,s1
    401a:	8556                	mv	a0,s5
    401c:	575000ef          	jal	ra,4d90 <_realloc_r>
    4020:	892a                	mv	s2,a0
    4022:	fd5d                	bnez	a0,3fe0 <__ssputs_r+0x96>
    4024:	480c                	lw	a1,16(s0)
    4026:	8556                	mv	a0,s5
    4028:	fb5fe0ef          	jal	ra,2fdc <_free_r>
    402c:	bfb5                	j	3fa8 <__ssputs_r+0x5e>

0000402e <_svfiprintf_r>:
    402e:	25de                	lhu	a5,12(a1)
    4030:	7171                	addi	sp,sp,-176
    4032:	d326                	sw	s1,164(sp)
    4034:	d14a                	sw	s2,160(sp)
    4036:	cf4e                	sw	s3,156(sp)
    4038:	d706                	sw	ra,172(sp)
    403a:	d522                	sw	s0,168(sp)
    403c:	cd52                	sw	s4,152(sp)
    403e:	cb56                	sw	s5,148(sp)
    4040:	c95a                	sw	s6,144(sp)
    4042:	c75e                	sw	s7,140(sp)
    4044:	c562                	sw	s8,136(sp)
    4046:	c366                	sw	s9,132(sp)
    4048:	0807f793          	andi	a5,a5,128
    404c:	89aa                	mv	s3,a0
    404e:	892e                	mv	s2,a1
    4050:	84b2                	mv	s1,a2
    4052:	c3b9                	beqz	a5,4098 <_svfiprintf_r+0x6a>
    4054:	499c                	lw	a5,16(a1)
    4056:	e3a9                	bnez	a5,4098 <_svfiprintf_r+0x6a>
    4058:	04000593          	li	a1,64
    405c:	c636                	sw	a3,12(sp)
    405e:	826ff0ef          	jal	ra,3084 <_malloc_r>
    4062:	00a92023          	sw	a0,0(s2)
    4066:	00a92823          	sw	a0,16(s2)
    406a:	46b2                	lw	a3,12(sp)
    406c:	e115                	bnez	a0,4090 <_svfiprintf_r+0x62>
    406e:	47b1                	li	a5,12
    4070:	00f9a023          	sw	a5,0(s3)
    4074:	557d                	li	a0,-1
    4076:	50ba                	lw	ra,172(sp)
    4078:	542a                	lw	s0,168(sp)
    407a:	549a                	lw	s1,164(sp)
    407c:	590a                	lw	s2,160(sp)
    407e:	49fa                	lw	s3,156(sp)
    4080:	4a6a                	lw	s4,152(sp)
    4082:	4ada                	lw	s5,148(sp)
    4084:	4b4a                	lw	s6,144(sp)
    4086:	4bba                	lw	s7,140(sp)
    4088:	4c2a                	lw	s8,136(sp)
    408a:	4c9a                	lw	s9,132(sp)
    408c:	614d                	addi	sp,sp,176
    408e:	8082                	ret
    4090:	04000793          	li	a5,64
    4094:	00f92a23          	sw	a5,20(s2)
    4098:	02000793          	li	a5,32
    409c:	02f10ca3          	sb	a5,57(sp)
    40a0:	03000793          	li	a5,48
    40a4:	da02                	sw	zero,52(sp)
    40a6:	02f10d23          	sb	a5,58(sp)
    40aa:	ce36                	sw	a3,28(sp)
    40ac:	02500b93          	li	s7,37
    40b0:	00002a97          	auipc	s5,0x2
    40b4:	14ca8a93          	addi	s5,s5,332 # 61fc <__month_lengths+0x60>
    40b8:	4c05                	li	s8,1
    40ba:	4b29                	li	s6,10
    40bc:	8426                	mv	s0,s1
    40be:	201c                	lbu	a5,0(s0)
    40c0:	c399                	beqz	a5,40c6 <_svfiprintf_r+0x98>
    40c2:	09779963          	bne	a5,s7,4154 <_svfiprintf_r+0x126>
    40c6:	40940cb3          	sub	s9,s0,s1
    40ca:	000c8e63          	beqz	s9,40e6 <_svfiprintf_r+0xb8>
    40ce:	86e6                	mv	a3,s9
    40d0:	8626                	mv	a2,s1
    40d2:	85ca                	mv	a1,s2
    40d4:	854e                	mv	a0,s3
    40d6:	e75ff0ef          	jal	ra,3f4a <__ssputs_r>
    40da:	57fd                	li	a5,-1
    40dc:	18f50b63          	beq	a0,a5,4272 <_svfiprintf_r+0x244>
    40e0:	56d2                	lw	a3,52(sp)
    40e2:	96e6                	add	a3,a3,s9
    40e4:	da36                	sw	a3,52(sp)
    40e6:	201c                	lbu	a5,0(s0)
    40e8:	18078563          	beqz	a5,4272 <_svfiprintf_r+0x244>
    40ec:	57fd                	li	a5,-1
    40ee:	00140493          	addi	s1,s0,1
    40f2:	d002                	sw	zero,32(sp)
    40f4:	d602                	sw	zero,44(sp)
    40f6:	d23e                	sw	a5,36(sp)
    40f8:	d402                	sw	zero,40(sp)
    40fa:	060101a3          	sb	zero,99(sp)
    40fe:	dc82                	sw	zero,120(sp)
    4100:	208c                	lbu	a1,0(s1)
    4102:	4615                	li	a2,5
    4104:	8556                	mv	a0,s5
    4106:	42d000ef          	jal	ra,4d32 <memchr>
    410a:	00148413          	addi	s0,s1,1
    410e:	5782                	lw	a5,32(sp)
    4110:	e521                	bnez	a0,4158 <_svfiprintf_r+0x12a>
    4112:	0107f713          	andi	a4,a5,16
    4116:	c709                	beqz	a4,4120 <_svfiprintf_r+0xf2>
    4118:	02000713          	li	a4,32
    411c:	06e101a3          	sb	a4,99(sp)
    4120:	0087f713          	andi	a4,a5,8
    4124:	c709                	beqz	a4,412e <_svfiprintf_r+0x100>
    4126:	02b00713          	li	a4,43
    412a:	06e101a3          	sb	a4,99(sp)
    412e:	2094                	lbu	a3,0(s1)
    4130:	02a00713          	li	a4,42
    4134:	02e68a63          	beq	a3,a4,4168 <_svfiprintf_r+0x13a>
    4138:	57b2                	lw	a5,44(sp)
    413a:	8426                	mv	s0,s1
    413c:	4681                	li	a3,0
    413e:	4625                	li	a2,9
    4140:	2018                	lbu	a4,0(s0)
    4142:	00140593          	addi	a1,s0,1
    4146:	fd070713          	addi	a4,a4,-48 # ffffdfd0 <_eusrstack+0xdfff5fd0>
    414a:	06e67263          	bgeu	a2,a4,41ae <_svfiprintf_r+0x180>
    414e:	c68d                	beqz	a3,4178 <_svfiprintf_r+0x14a>
    4150:	d63e                	sw	a5,44(sp)
    4152:	a01d                	j	4178 <_svfiprintf_r+0x14a>
    4154:	0405                	addi	s0,s0,1
    4156:	b7a5                	j	40be <_svfiprintf_r+0x90>
    4158:	41550533          	sub	a0,a0,s5
    415c:	00ac1533          	sll	a0,s8,a0
    4160:	8fc9                	or	a5,a5,a0
    4162:	d03e                	sw	a5,32(sp)
    4164:	84a2                	mv	s1,s0
    4166:	bf69                	j	4100 <_svfiprintf_r+0xd2>
    4168:	4772                	lw	a4,28(sp)
    416a:	00470693          	addi	a3,a4,4
    416e:	4318                	lw	a4,0(a4)
    4170:	ce36                	sw	a3,28(sp)
    4172:	02074763          	bltz	a4,41a0 <_svfiprintf_r+0x172>
    4176:	d63a                	sw	a4,44(sp)
    4178:	2018                	lbu	a4,0(s0)
    417a:	02e00793          	li	a5,46
    417e:	04f71d63          	bne	a4,a5,41d8 <_svfiprintf_r+0x1aa>
    4182:	3018                	lbu	a4,1(s0)
    4184:	02a00793          	li	a5,42
    4188:	02f71b63          	bne	a4,a5,41be <_svfiprintf_r+0x190>
    418c:	47f2                	lw	a5,28(sp)
    418e:	0409                	addi	s0,s0,2
    4190:	00478713          	addi	a4,a5,4
    4194:	439c                	lw	a5,0(a5)
    4196:	ce3a                	sw	a4,28(sp)
    4198:	0207c163          	bltz	a5,41ba <_svfiprintf_r+0x18c>
    419c:	d23e                	sw	a5,36(sp)
    419e:	a82d                	j	41d8 <_svfiprintf_r+0x1aa>
    41a0:	40e00733          	neg	a4,a4
    41a4:	0027e793          	ori	a5,a5,2
    41a8:	d63a                	sw	a4,44(sp)
    41aa:	d03e                	sw	a5,32(sp)
    41ac:	b7f1                	j	4178 <_svfiprintf_r+0x14a>
    41ae:	036787b3          	mul	a5,a5,s6
    41b2:	4685                	li	a3,1
    41b4:	842e                	mv	s0,a1
    41b6:	97ba                	add	a5,a5,a4
    41b8:	b761                	j	4140 <_svfiprintf_r+0x112>
    41ba:	57fd                	li	a5,-1
    41bc:	b7c5                	j	419c <_svfiprintf_r+0x16e>
    41be:	0405                	addi	s0,s0,1
    41c0:	d202                	sw	zero,36(sp)
    41c2:	4681                	li	a3,0
    41c4:	4781                	li	a5,0
    41c6:	4625                	li	a2,9
    41c8:	2018                	lbu	a4,0(s0)
    41ca:	00140593          	addi	a1,s0,1
    41ce:	fd070713          	addi	a4,a4,-48
    41d2:	06e67663          	bgeu	a2,a4,423e <_svfiprintf_r+0x210>
    41d6:	f2f9                	bnez	a3,419c <_svfiprintf_r+0x16e>
    41d8:	200c                	lbu	a1,0(s0)
    41da:	460d                	li	a2,3
    41dc:	00002517          	auipc	a0,0x2
    41e0:	02850513          	addi	a0,a0,40 # 6204 <__month_lengths+0x68>
    41e4:	34f000ef          	jal	ra,4d32 <memchr>
    41e8:	cd11                	beqz	a0,4204 <_svfiprintf_r+0x1d6>
    41ea:	00002797          	auipc	a5,0x2
    41ee:	01a78793          	addi	a5,a5,26 # 6204 <__month_lengths+0x68>
    41f2:	8d1d                	sub	a0,a0,a5
    41f4:	04000793          	li	a5,64
    41f8:	00a797b3          	sll	a5,a5,a0
    41fc:	5502                	lw	a0,32(sp)
    41fe:	0405                	addi	s0,s0,1
    4200:	8d5d                	or	a0,a0,a5
    4202:	d02a                	sw	a0,32(sp)
    4204:	200c                	lbu	a1,0(s0)
    4206:	4619                	li	a2,6
    4208:	00002517          	auipc	a0,0x2
    420c:	00050513          	mv	a0,a0
    4210:	00140493          	addi	s1,s0,1
    4214:	02b10c23          	sb	a1,56(sp)
    4218:	31b000ef          	jal	ra,4d32 <memchr>
    421c:	c525                	beqz	a0,4284 <_svfiprintf_r+0x256>
    421e:	ffffc797          	auipc	a5,0xffffc
    4222:	de278793          	addi	a5,a5,-542 # 0 <_sinit>
    4226:	e795                	bnez	a5,4252 <_svfiprintf_r+0x224>
    4228:	5702                	lw	a4,32(sp)
    422a:	47f2                	lw	a5,28(sp)
    422c:	10077713          	andi	a4,a4,256
    4230:	cf09                	beqz	a4,424a <_svfiprintf_r+0x21c>
    4232:	0791                	addi	a5,a5,4
    4234:	ce3e                	sw	a5,28(sp)
    4236:	57d2                	lw	a5,52(sp)
    4238:	97d2                	add	a5,a5,s4
    423a:	da3e                	sw	a5,52(sp)
    423c:	b541                	j	40bc <_svfiprintf_r+0x8e>
    423e:	036787b3          	mul	a5,a5,s6
    4242:	4685                	li	a3,1
    4244:	842e                	mv	s0,a1
    4246:	97ba                	add	a5,a5,a4
    4248:	b741                	j	41c8 <_svfiprintf_r+0x19a>
    424a:	079d                	addi	a5,a5,7
    424c:	9be1                	andi	a5,a5,-8
    424e:	07a1                	addi	a5,a5,8
    4250:	b7d5                	j	4234 <_svfiprintf_r+0x206>
    4252:	0878                	addi	a4,sp,28
    4254:	00000697          	auipc	a3,0x0
    4258:	cf668693          	addi	a3,a3,-778 # 3f4a <__ssputs_r>
    425c:	864a                	mv	a2,s2
    425e:	100c                	addi	a1,sp,32
    4260:	854e                	mv	a0,s3
    4262:	00000097          	auipc	ra,0x0
    4266:	000000e7          	jalr	zero # 0 <_sinit>
    426a:	57fd                	li	a5,-1
    426c:	8a2a                	mv	s4,a0
    426e:	fcf514e3          	bne	a0,a5,4236 <_svfiprintf_r+0x208>
    4272:	00c95783          	lhu	a5,12(s2)
    4276:	557d                	li	a0,-1
    4278:	0407f793          	andi	a5,a5,64
    427c:	de079de3          	bnez	a5,4076 <_svfiprintf_r+0x48>
    4280:	5552                	lw	a0,52(sp)
    4282:	bbd5                	j	4076 <_svfiprintf_r+0x48>
    4284:	0878                	addi	a4,sp,28
    4286:	00000697          	auipc	a3,0x0
    428a:	cc468693          	addi	a3,a3,-828 # 3f4a <__ssputs_r>
    428e:	864a                	mv	a2,s2
    4290:	100c                	addi	a1,sp,32
    4292:	854e                	mv	a0,s3
    4294:	2121                	jal	469c <_printf_i>
    4296:	bfd1                	j	426a <_svfiprintf_r+0x23c>

00004298 <__sfputc_r>:
    4298:	461c                	lw	a5,8(a2)
    429a:	17fd                	addi	a5,a5,-1
    429c:	c61c                	sw	a5,8(a2)
    429e:	0007da63          	bgez	a5,42b2 <__sfputc_r+0x1a>
    42a2:	4e18                	lw	a4,24(a2)
    42a4:	00e7c563          	blt	a5,a4,42ae <__sfputc_r+0x16>
    42a8:	47a9                	li	a5,10
    42aa:	00f59463          	bne	a1,a5,42b2 <__sfputc_r+0x1a>
    42ae:	d54ff06f          	j	3802 <__swbuf_r>
    42b2:	421c                	lw	a5,0(a2)
    42b4:	852e                	mv	a0,a1
    42b6:	00178713          	addi	a4,a5,1
    42ba:	c218                	sw	a4,0(a2)
    42bc:	a38c                	sb	a1,0(a5)
    42be:	8082                	ret

000042c0 <__sfputs_r>:
    42c0:	1101                	addi	sp,sp,-32
    42c2:	cc22                	sw	s0,24(sp)
    42c4:	ca26                	sw	s1,20(sp)
    42c6:	c84a                	sw	s2,16(sp)
    42c8:	c64e                	sw	s3,12(sp)
    42ca:	c452                	sw	s4,8(sp)
    42cc:	ce06                	sw	ra,28(sp)
    42ce:	892a                	mv	s2,a0
    42d0:	89ae                	mv	s3,a1
    42d2:	8432                	mv	s0,a2
    42d4:	00d604b3          	add	s1,a2,a3
    42d8:	5a7d                	li	s4,-1
    42da:	00941463          	bne	s0,s1,42e2 <__sfputs_r+0x22>
    42de:	4501                	li	a0,0
    42e0:	a809                	j	42f2 <__sfputs_r+0x32>
    42e2:	200c                	lbu	a1,0(s0)
    42e4:	864e                	mv	a2,s3
    42e6:	854a                	mv	a0,s2
    42e8:	fb1ff0ef          	jal	ra,4298 <__sfputc_r>
    42ec:	0405                	addi	s0,s0,1
    42ee:	ff4516e3          	bne	a0,s4,42da <__sfputs_r+0x1a>
    42f2:	40f2                	lw	ra,28(sp)
    42f4:	4462                	lw	s0,24(sp)
    42f6:	44d2                	lw	s1,20(sp)
    42f8:	4942                	lw	s2,16(sp)
    42fa:	49b2                	lw	s3,12(sp)
    42fc:	4a22                	lw	s4,8(sp)
    42fe:	6105                	addi	sp,sp,32
    4300:	8082                	ret

00004302 <_vfiprintf_r>:
    4302:	7135                	addi	sp,sp,-160
    4304:	cd22                	sw	s0,152(sp)
    4306:	cb26                	sw	s1,148(sp)
    4308:	c94a                	sw	s2,144(sp)
    430a:	c74e                	sw	s3,140(sp)
    430c:	cf06                	sw	ra,156(sp)
    430e:	c552                	sw	s4,136(sp)
    4310:	c356                	sw	s5,132(sp)
    4312:	c15a                	sw	s6,128(sp)
    4314:	dede                	sw	s7,124(sp)
    4316:	dce2                	sw	s8,120(sp)
    4318:	dae6                	sw	s9,116(sp)
    431a:	89aa                	mv	s3,a0
    431c:	84ae                	mv	s1,a1
    431e:	8932                	mv	s2,a2
    4320:	8436                	mv	s0,a3
    4322:	c509                	beqz	a0,432c <_vfiprintf_r+0x2a>
    4324:	4d1c                	lw	a5,24(a0)
    4326:	e399                	bnez	a5,432c <_vfiprintf_r+0x2a>
    4328:	90dff0ef          	jal	ra,3c34 <__sinit>
    432c:	00002797          	auipc	a5,0x2
    4330:	e3078793          	addi	a5,a5,-464 # 615c <__sf_fake_stdin>
    4334:	0cf49963          	bne	s1,a5,4406 <_vfiprintf_r+0x104>
    4338:	0049a483          	lw	s1,4(s3)
    433c:	24de                	lhu	a5,12(s1)
    433e:	8ba1                	andi	a5,a5,8
    4340:	c7ed                	beqz	a5,442a <_vfiprintf_r+0x128>
    4342:	489c                	lw	a5,16(s1)
    4344:	c3fd                	beqz	a5,442a <_vfiprintf_r+0x128>
    4346:	02000793          	li	a5,32
    434a:	02f104a3          	sb	a5,41(sp)
    434e:	03000793          	li	a5,48
    4352:	d202                	sw	zero,36(sp)
    4354:	02f10523          	sb	a5,42(sp)
    4358:	c622                	sw	s0,12(sp)
    435a:	02500b93          	li	s7,37
    435e:	00002a97          	auipc	s5,0x2
    4362:	e9ea8a93          	addi	s5,s5,-354 # 61fc <__month_lengths+0x60>
    4366:	4c05                	li	s8,1
    4368:	4b29                	li	s6,10
    436a:	844a                	mv	s0,s2
    436c:	201c                	lbu	a5,0(s0)
    436e:	c399                	beqz	a5,4374 <_vfiprintf_r+0x72>
    4370:	0f779063          	bne	a5,s7,4450 <_vfiprintf_r+0x14e>
    4374:	41240cb3          	sub	s9,s0,s2
    4378:	000c8e63          	beqz	s9,4394 <_vfiprintf_r+0x92>
    437c:	86e6                	mv	a3,s9
    437e:	864a                	mv	a2,s2
    4380:	85a6                	mv	a1,s1
    4382:	854e                	mv	a0,s3
    4384:	f3dff0ef          	jal	ra,42c0 <__sfputs_r>
    4388:	57fd                	li	a5,-1
    438a:	1ef50263          	beq	a0,a5,456e <_vfiprintf_r+0x26c>
    438e:	5692                	lw	a3,36(sp)
    4390:	96e6                	add	a3,a3,s9
    4392:	d236                	sw	a3,36(sp)
    4394:	201c                	lbu	a5,0(s0)
    4396:	1c078c63          	beqz	a5,456e <_vfiprintf_r+0x26c>
    439a:	57fd                	li	a5,-1
    439c:	00140913          	addi	s2,s0,1
    43a0:	c802                	sw	zero,16(sp)
    43a2:	ce02                	sw	zero,28(sp)
    43a4:	ca3e                	sw	a5,20(sp)
    43a6:	cc02                	sw	zero,24(sp)
    43a8:	040109a3          	sb	zero,83(sp)
    43ac:	d482                	sw	zero,104(sp)
    43ae:	00094583          	lbu	a1,0(s2)
    43b2:	4615                	li	a2,5
    43b4:	8556                	mv	a0,s5
    43b6:	17d000ef          	jal	ra,4d32 <memchr>
    43ba:	00190413          	addi	s0,s2,1
    43be:	47c2                	lw	a5,16(sp)
    43c0:	e951                	bnez	a0,4454 <_vfiprintf_r+0x152>
    43c2:	0107f713          	andi	a4,a5,16
    43c6:	c709                	beqz	a4,43d0 <_vfiprintf_r+0xce>
    43c8:	02000713          	li	a4,32
    43cc:	04e109a3          	sb	a4,83(sp)
    43d0:	0087f713          	andi	a4,a5,8
    43d4:	c709                	beqz	a4,43de <_vfiprintf_r+0xdc>
    43d6:	02b00713          	li	a4,43
    43da:	04e109a3          	sb	a4,83(sp)
    43de:	00094683          	lbu	a3,0(s2)
    43e2:	02a00713          	li	a4,42
    43e6:	06e68f63          	beq	a3,a4,4464 <_vfiprintf_r+0x162>
    43ea:	47f2                	lw	a5,28(sp)
    43ec:	844a                	mv	s0,s2
    43ee:	4681                	li	a3,0
    43f0:	4625                	li	a2,9
    43f2:	2018                	lbu	a4,0(s0)
    43f4:	00140593          	addi	a1,s0,1
    43f8:	fd070713          	addi	a4,a4,-48
    43fc:	0ae67763          	bgeu	a2,a4,44aa <_vfiprintf_r+0x1a8>
    4400:	cab5                	beqz	a3,4474 <_vfiprintf_r+0x172>
    4402:	ce3e                	sw	a5,28(sp)
    4404:	a885                	j	4474 <_vfiprintf_r+0x172>
    4406:	00002797          	auipc	a5,0x2
    440a:	d7678793          	addi	a5,a5,-650 # 617c <__sf_fake_stdout>
    440e:	00f49563          	bne	s1,a5,4418 <_vfiprintf_r+0x116>
    4412:	0089a483          	lw	s1,8(s3)
    4416:	b71d                	j	433c <_vfiprintf_r+0x3a>
    4418:	00002797          	auipc	a5,0x2
    441c:	d2478793          	addi	a5,a5,-732 # 613c <__sf_fake_stderr>
    4420:	f0f49ee3          	bne	s1,a5,433c <_vfiprintf_r+0x3a>
    4424:	00c9a483          	lw	s1,12(s3)
    4428:	bf11                	j	433c <_vfiprintf_r+0x3a>
    442a:	85a6                	mv	a1,s1
    442c:	854e                	mv	a0,s3
    442e:	c90ff0ef          	jal	ra,38be <__swsetup_r>
    4432:	d911                	beqz	a0,4346 <_vfiprintf_r+0x44>
    4434:	557d                	li	a0,-1
    4436:	40fa                	lw	ra,156(sp)
    4438:	446a                	lw	s0,152(sp)
    443a:	44da                	lw	s1,148(sp)
    443c:	494a                	lw	s2,144(sp)
    443e:	49ba                	lw	s3,140(sp)
    4440:	4a2a                	lw	s4,136(sp)
    4442:	4a9a                	lw	s5,132(sp)
    4444:	4b0a                	lw	s6,128(sp)
    4446:	5bf6                	lw	s7,124(sp)
    4448:	5c66                	lw	s8,120(sp)
    444a:	5cd6                	lw	s9,116(sp)
    444c:	610d                	addi	sp,sp,160
    444e:	8082                	ret
    4450:	0405                	addi	s0,s0,1
    4452:	bf29                	j	436c <_vfiprintf_r+0x6a>
    4454:	41550533          	sub	a0,a0,s5
    4458:	00ac1533          	sll	a0,s8,a0
    445c:	8fc9                	or	a5,a5,a0
    445e:	c83e                	sw	a5,16(sp)
    4460:	8922                	mv	s2,s0
    4462:	b7b1                	j	43ae <_vfiprintf_r+0xac>
    4464:	4732                	lw	a4,12(sp)
    4466:	00470693          	addi	a3,a4,4
    446a:	4318                	lw	a4,0(a4)
    446c:	c636                	sw	a3,12(sp)
    446e:	02074763          	bltz	a4,449c <_vfiprintf_r+0x19a>
    4472:	ce3a                	sw	a4,28(sp)
    4474:	2018                	lbu	a4,0(s0)
    4476:	02e00793          	li	a5,46
    447a:	04f71d63          	bne	a4,a5,44d4 <_vfiprintf_r+0x1d2>
    447e:	3018                	lbu	a4,1(s0)
    4480:	02a00793          	li	a5,42
    4484:	02f71b63          	bne	a4,a5,44ba <_vfiprintf_r+0x1b8>
    4488:	47b2                	lw	a5,12(sp)
    448a:	0409                	addi	s0,s0,2
    448c:	00478713          	addi	a4,a5,4
    4490:	439c                	lw	a5,0(a5)
    4492:	c63a                	sw	a4,12(sp)
    4494:	0207c163          	bltz	a5,44b6 <_vfiprintf_r+0x1b4>
    4498:	ca3e                	sw	a5,20(sp)
    449a:	a82d                	j	44d4 <_vfiprintf_r+0x1d2>
    449c:	40e00733          	neg	a4,a4
    44a0:	0027e793          	ori	a5,a5,2
    44a4:	ce3a                	sw	a4,28(sp)
    44a6:	c83e                	sw	a5,16(sp)
    44a8:	b7f1                	j	4474 <_vfiprintf_r+0x172>
    44aa:	036787b3          	mul	a5,a5,s6
    44ae:	4685                	li	a3,1
    44b0:	842e                	mv	s0,a1
    44b2:	97ba                	add	a5,a5,a4
    44b4:	bf3d                	j	43f2 <_vfiprintf_r+0xf0>
    44b6:	57fd                	li	a5,-1
    44b8:	b7c5                	j	4498 <_vfiprintf_r+0x196>
    44ba:	0405                	addi	s0,s0,1
    44bc:	ca02                	sw	zero,20(sp)
    44be:	4681                	li	a3,0
    44c0:	4781                	li	a5,0
    44c2:	4625                	li	a2,9
    44c4:	2018                	lbu	a4,0(s0)
    44c6:	00140593          	addi	a1,s0,1
    44ca:	fd070713          	addi	a4,a4,-48
    44ce:	06e67663          	bgeu	a2,a4,453a <_vfiprintf_r+0x238>
    44d2:	f2f9                	bnez	a3,4498 <_vfiprintf_r+0x196>
    44d4:	200c                	lbu	a1,0(s0)
    44d6:	460d                	li	a2,3
    44d8:	00002517          	auipc	a0,0x2
    44dc:	d2c50513          	addi	a0,a0,-724 # 6204 <__month_lengths+0x68>
    44e0:	053000ef          	jal	ra,4d32 <memchr>
    44e4:	cd11                	beqz	a0,4500 <_vfiprintf_r+0x1fe>
    44e6:	00002797          	auipc	a5,0x2
    44ea:	d1e78793          	addi	a5,a5,-738 # 6204 <__month_lengths+0x68>
    44ee:	8d1d                	sub	a0,a0,a5
    44f0:	04000793          	li	a5,64
    44f4:	00a797b3          	sll	a5,a5,a0
    44f8:	4542                	lw	a0,16(sp)
    44fa:	0405                	addi	s0,s0,1
    44fc:	8d5d                	or	a0,a0,a5
    44fe:	c82a                	sw	a0,16(sp)
    4500:	200c                	lbu	a1,0(s0)
    4502:	4619                	li	a2,6
    4504:	00002517          	auipc	a0,0x2
    4508:	d0450513          	addi	a0,a0,-764 # 6208 <__month_lengths+0x6c>
    450c:	00140913          	addi	s2,s0,1
    4510:	02b10423          	sb	a1,40(sp)
    4514:	01f000ef          	jal	ra,4d32 <memchr>
    4518:	c135                	beqz	a0,457c <_vfiprintf_r+0x27a>
    451a:	ffffc797          	auipc	a5,0xffffc
    451e:	ae678793          	addi	a5,a5,-1306 # 0 <_sinit>
    4522:	e795                	bnez	a5,454e <_vfiprintf_r+0x24c>
    4524:	4742                	lw	a4,16(sp)
    4526:	47b2                	lw	a5,12(sp)
    4528:	10077713          	andi	a4,a4,256
    452c:	cf09                	beqz	a4,4546 <_vfiprintf_r+0x244>
    452e:	0791                	addi	a5,a5,4
    4530:	c63e                	sw	a5,12(sp)
    4532:	5792                	lw	a5,36(sp)
    4534:	97d2                	add	a5,a5,s4
    4536:	d23e                	sw	a5,36(sp)
    4538:	bd0d                	j	436a <_vfiprintf_r+0x68>
    453a:	036787b3          	mul	a5,a5,s6
    453e:	4685                	li	a3,1
    4540:	842e                	mv	s0,a1
    4542:	97ba                	add	a5,a5,a4
    4544:	b741                	j	44c4 <_vfiprintf_r+0x1c2>
    4546:	079d                	addi	a5,a5,7
    4548:	9be1                	andi	a5,a5,-8
    454a:	07a1                	addi	a5,a5,8
    454c:	b7d5                	j	4530 <_vfiprintf_r+0x22e>
    454e:	0078                	addi	a4,sp,12
    4550:	00000697          	auipc	a3,0x0
    4554:	d7068693          	addi	a3,a3,-656 # 42c0 <__sfputs_r>
    4558:	8626                	mv	a2,s1
    455a:	080c                	addi	a1,sp,16
    455c:	854e                	mv	a0,s3
    455e:	00000097          	auipc	ra,0x0
    4562:	000000e7          	jalr	zero # 0 <_sinit>
    4566:	57fd                	li	a5,-1
    4568:	8a2a                	mv	s4,a0
    456a:	fcf514e3          	bne	a0,a5,4532 <_vfiprintf_r+0x230>
    456e:	24de                	lhu	a5,12(s1)
    4570:	0407f793          	andi	a5,a5,64
    4574:	ec0790e3          	bnez	a5,4434 <_vfiprintf_r+0x132>
    4578:	5512                	lw	a0,36(sp)
    457a:	bd75                	j	4436 <_vfiprintf_r+0x134>
    457c:	0078                	addi	a4,sp,12
    457e:	00000697          	auipc	a3,0x0
    4582:	d4268693          	addi	a3,a3,-702 # 42c0 <__sfputs_r>
    4586:	8626                	mv	a2,s1
    4588:	080c                	addi	a1,sp,16
    458a:	854e                	mv	a0,s3
    458c:	2a01                	jal	469c <_printf_i>
    458e:	bfe1                	j	4566 <_vfiprintf_r+0x264>

00004590 <_printf_common>:
    4590:	7179                	addi	sp,sp,-48
    4592:	ca56                	sw	s5,20(sp)
    4594:	499c                	lw	a5,16(a1)
    4596:	8aba                	mv	s5,a4
    4598:	4598                	lw	a4,8(a1)
    459a:	d422                	sw	s0,40(sp)
    459c:	d226                	sw	s1,36(sp)
    459e:	ce4e                	sw	s3,28(sp)
    45a0:	cc52                	sw	s4,24(sp)
    45a2:	d606                	sw	ra,44(sp)
    45a4:	d04a                	sw	s2,32(sp)
    45a6:	c85a                	sw	s6,16(sp)
    45a8:	c65e                	sw	s7,12(sp)
    45aa:	89aa                	mv	s3,a0
    45ac:	842e                	mv	s0,a1
    45ae:	84b2                	mv	s1,a2
    45b0:	8a36                	mv	s4,a3
    45b2:	00e7d363          	bge	a5,a4,45b8 <_printf_common+0x28>
    45b6:	87ba                	mv	a5,a4
    45b8:	c09c                	sw	a5,0(s1)
    45ba:	04344703          	lbu	a4,67(s0)
    45be:	c319                	beqz	a4,45c4 <_printf_common+0x34>
    45c0:	0785                	addi	a5,a5,1
    45c2:	c09c                	sw	a5,0(s1)
    45c4:	401c                	lw	a5,0(s0)
    45c6:	0207f793          	andi	a5,a5,32
    45ca:	c781                	beqz	a5,45d2 <_printf_common+0x42>
    45cc:	409c                	lw	a5,0(s1)
    45ce:	0789                	addi	a5,a5,2
    45d0:	c09c                	sw	a5,0(s1)
    45d2:	00042903          	lw	s2,0(s0)
    45d6:	00697913          	andi	s2,s2,6
    45da:	00091a63          	bnez	s2,45ee <_printf_common+0x5e>
    45de:	01940b13          	addi	s6,s0,25
    45e2:	5bfd                	li	s7,-1
    45e4:	445c                	lw	a5,12(s0)
    45e6:	4098                	lw	a4,0(s1)
    45e8:	8f99                	sub	a5,a5,a4
    45ea:	04f94c63          	blt	s2,a5,4642 <_printf_common+0xb2>
    45ee:	401c                	lw	a5,0(s0)
    45f0:	04344683          	lbu	a3,67(s0)
    45f4:	0207f793          	andi	a5,a5,32
    45f8:	00d036b3          	snez	a3,a3
    45fc:	eba5                	bnez	a5,466c <_printf_common+0xdc>
    45fe:	04340613          	addi	a2,s0,67
    4602:	85d2                	mv	a1,s4
    4604:	854e                	mv	a0,s3
    4606:	9a82                	jalr	s5
    4608:	57fd                	li	a5,-1
    460a:	04f50363          	beq	a0,a5,4650 <_printf_common+0xc0>
    460e:	401c                	lw	a5,0(s0)
    4610:	4611                	li	a2,4
    4612:	4098                	lw	a4,0(s1)
    4614:	8b99                	andi	a5,a5,6
    4616:	4454                	lw	a3,12(s0)
    4618:	4481                	li	s1,0
    461a:	00c79763          	bne	a5,a2,4628 <_printf_common+0x98>
    461e:	40e684b3          	sub	s1,a3,a4
    4622:	0004d363          	bgez	s1,4628 <_printf_common+0x98>
    4626:	4481                	li	s1,0
    4628:	441c                	lw	a5,8(s0)
    462a:	4818                	lw	a4,16(s0)
    462c:	00f75463          	bge	a4,a5,4634 <_printf_common+0xa4>
    4630:	8f99                	sub	a5,a5,a4
    4632:	94be                	add	s1,s1,a5
    4634:	4901                	li	s2,0
    4636:	0469                	addi	s0,s0,26
    4638:	5b7d                	li	s6,-1
    463a:	05249863          	bne	s1,s2,468a <_printf_common+0xfa>
    463e:	4501                	li	a0,0
    4640:	a809                	j	4652 <_printf_common+0xc2>
    4642:	4685                	li	a3,1
    4644:	865a                	mv	a2,s6
    4646:	85d2                	mv	a1,s4
    4648:	854e                	mv	a0,s3
    464a:	9a82                	jalr	s5
    464c:	01751e63          	bne	a0,s7,4668 <_printf_common+0xd8>
    4650:	557d                	li	a0,-1
    4652:	50b2                	lw	ra,44(sp)
    4654:	5422                	lw	s0,40(sp)
    4656:	5492                	lw	s1,36(sp)
    4658:	5902                	lw	s2,32(sp)
    465a:	49f2                	lw	s3,28(sp)
    465c:	4a62                	lw	s4,24(sp)
    465e:	4ad2                	lw	s5,20(sp)
    4660:	4b42                	lw	s6,16(sp)
    4662:	4bb2                	lw	s7,12(sp)
    4664:	6145                	addi	sp,sp,48
    4666:	8082                	ret
    4668:	0905                	addi	s2,s2,1
    466a:	bfad                	j	45e4 <_printf_common+0x54>
    466c:	00d40733          	add	a4,s0,a3
    4670:	03000613          	li	a2,48
    4674:	04c701a3          	sb	a2,67(a4)
    4678:	04544703          	lbu	a4,69(s0)
    467c:	00168793          	addi	a5,a3,1
    4680:	97a2                	add	a5,a5,s0
    4682:	0689                	addi	a3,a3,2
    4684:	04e781a3          	sb	a4,67(a5)
    4688:	bf9d                	j	45fe <_printf_common+0x6e>
    468a:	4685                	li	a3,1
    468c:	8622                	mv	a2,s0
    468e:	85d2                	mv	a1,s4
    4690:	854e                	mv	a0,s3
    4692:	9a82                	jalr	s5
    4694:	fb650ee3          	beq	a0,s6,4650 <_printf_common+0xc0>
    4698:	0905                	addi	s2,s2,1
    469a:	b745                	j	463a <_printf_common+0xaa>

0000469c <_printf_i>:
    469c:	7179                	addi	sp,sp,-48
    469e:	d422                	sw	s0,40(sp)
    46a0:	d226                	sw	s1,36(sp)
    46a2:	d04a                	sw	s2,32(sp)
    46a4:	ce4e                	sw	s3,28(sp)
    46a6:	d606                	sw	ra,44(sp)
    46a8:	cc52                	sw	s4,24(sp)
    46aa:	ca56                	sw	s5,20(sp)
    46ac:	c85a                	sw	s6,16(sp)
    46ae:	89b6                	mv	s3,a3
    46b0:	2d94                	lbu	a3,24(a1)
    46b2:	06900793          	li	a5,105
    46b6:	8932                	mv	s2,a2
    46b8:	84aa                	mv	s1,a0
    46ba:	842e                	mv	s0,a1
    46bc:	04358613          	addi	a2,a1,67
    46c0:	02f68d63          	beq	a3,a5,46fa <_printf_i+0x5e>
    46c4:	06d7e263          	bltu	a5,a3,4728 <_printf_i+0x8c>
    46c8:	05800793          	li	a5,88
    46cc:	18f68663          	beq	a3,a5,4858 <_printf_i+0x1bc>
    46d0:	00d7ed63          	bltu	a5,a3,46ea <_printf_i+0x4e>
    46d4:	20068e63          	beqz	a3,48f0 <_printf_i+0x254>
    46d8:	04300793          	li	a5,67
    46dc:	0af68e63          	beq	a3,a5,4798 <_printf_i+0xfc>
    46e0:	04240a93          	addi	s5,s0,66
    46e4:	04d40123          	sb	a3,66(s0)
    46e8:	a0c9                	j	47aa <_printf_i+0x10e>
    46ea:	06300793          	li	a5,99
    46ee:	0af68563          	beq	a3,a5,4798 <_printf_i+0xfc>
    46f2:	06400793          	li	a5,100
    46f6:	fef695e3          	bne	a3,a5,46e0 <_printf_i+0x44>
    46fa:	401c                	lw	a5,0(s0)
    46fc:	4308                	lw	a0,0(a4)
    46fe:	0807f693          	andi	a3,a5,128
    4702:	00450593          	addi	a1,a0,4
    4706:	c6c5                	beqz	a3,47ae <_printf_i+0x112>
    4708:	411c                	lw	a5,0(a0)
    470a:	c30c                	sw	a1,0(a4)
    470c:	0007d863          	bgez	a5,471c <_printf_i+0x80>
    4710:	02d00713          	li	a4,45
    4714:	40f007b3          	neg	a5,a5
    4718:	04e401a3          	sb	a4,67(s0)
    471c:	00002697          	auipc	a3,0x2
    4720:	af468693          	addi	a3,a3,-1292 # 6210 <__month_lengths+0x74>
    4724:	4729                	li	a4,10
    4726:	a865                	j	47de <_printf_i+0x142>
    4728:	07000793          	li	a5,112
    472c:	16f68263          	beq	a3,a5,4890 <_printf_i+0x1f4>
    4730:	02d7e563          	bltu	a5,a3,475a <_printf_i+0xbe>
    4734:	06e00793          	li	a5,110
    4738:	18f68963          	beq	a3,a5,48ca <_printf_i+0x22e>
    473c:	06f00793          	li	a5,111
    4740:	faf690e3          	bne	a3,a5,46e0 <_printf_i+0x44>
    4744:	400c                	lw	a1,0(s0)
    4746:	431c                	lw	a5,0(a4)
    4748:	0805f813          	andi	a6,a1,128
    474c:	00478513          	addi	a0,a5,4
    4750:	06080763          	beqz	a6,47be <_printf_i+0x122>
    4754:	c308                	sw	a0,0(a4)
    4756:	439c                	lw	a5,0(a5)
    4758:	a885                	j	47c8 <_printf_i+0x12c>
    475a:	07500793          	li	a5,117
    475e:	fef683e3          	beq	a3,a5,4744 <_printf_i+0xa8>
    4762:	07800793          	li	a5,120
    4766:	12f68963          	beq	a3,a5,4898 <_printf_i+0x1fc>
    476a:	07300793          	li	a5,115
    476e:	f6f699e3          	bne	a3,a5,46e0 <_printf_i+0x44>
    4772:	431c                	lw	a5,0(a4)
    4774:	41d0                	lw	a2,4(a1)
    4776:	4581                	li	a1,0
    4778:	00478693          	addi	a3,a5,4
    477c:	c314                	sw	a3,0(a4)
    477e:	0007aa83          	lw	s5,0(a5)
    4782:	8556                	mv	a0,s5
    4784:	237d                	jal	4d32 <memchr>
    4786:	c501                	beqz	a0,478e <_printf_i+0xf2>
    4788:	41550533          	sub	a0,a0,s5
    478c:	c048                	sw	a0,4(s0)
    478e:	405c                	lw	a5,4(s0)
    4790:	c81c                	sw	a5,16(s0)
    4792:	040401a3          	sb	zero,67(s0)
    4796:	a861                	j	482e <_printf_i+0x192>
    4798:	431c                	lw	a5,0(a4)
    479a:	04240a93          	addi	s5,s0,66
    479e:	00478693          	addi	a3,a5,4
    47a2:	439c                	lw	a5,0(a5)
    47a4:	c314                	sw	a3,0(a4)
    47a6:	04f40123          	sb	a5,66(s0)
    47aa:	4785                	li	a5,1
    47ac:	b7d5                	j	4790 <_printf_i+0xf4>
    47ae:	0407f693          	andi	a3,a5,64
    47b2:	411c                	lw	a5,0(a0)
    47b4:	c30c                	sw	a1,0(a4)
    47b6:	dab9                	beqz	a3,470c <_printf_i+0x70>
    47b8:	07c2                	slli	a5,a5,0x10
    47ba:	87c1                	srai	a5,a5,0x10
    47bc:	bf81                	j	470c <_printf_i+0x70>
    47be:	0405f593          	andi	a1,a1,64
    47c2:	c308                	sw	a0,0(a4)
    47c4:	d9c9                	beqz	a1,4756 <_printf_i+0xba>
    47c6:	239e                	lhu	a5,0(a5)
    47c8:	06f00713          	li	a4,111
    47cc:	0ee68763          	beq	a3,a4,48ba <_printf_i+0x21e>
    47d0:	00002697          	auipc	a3,0x2
    47d4:	a4068693          	addi	a3,a3,-1472 # 6210 <__month_lengths+0x74>
    47d8:	4729                	li	a4,10
    47da:	040401a3          	sb	zero,67(s0)
    47de:	404c                	lw	a1,4(s0)
    47e0:	c40c                	sw	a1,8(s0)
    47e2:	0005c563          	bltz	a1,47ec <_printf_i+0x150>
    47e6:	4008                	lw	a0,0(s0)
    47e8:	996d                	andi	a0,a0,-5
    47ea:	c008                	sw	a0,0(s0)
    47ec:	e399                	bnez	a5,47f2 <_printf_i+0x156>
    47ee:	8ab2                	mv	s5,a2
    47f0:	cd89                	beqz	a1,480a <_printf_i+0x16e>
    47f2:	8ab2                	mv	s5,a2
    47f4:	02e7f5b3          	remu	a1,a5,a4
    47f8:	1afd                	addi	s5,s5,-1
    47fa:	95b6                	add	a1,a1,a3
    47fc:	218c                	lbu	a1,0(a1)
    47fe:	00ba8023          	sb	a1,0(s5)
    4802:	02e7d5b3          	divu	a1,a5,a4
    4806:	0ce7f063          	bgeu	a5,a4,48c6 <_printf_i+0x22a>
    480a:	47a1                	li	a5,8
    480c:	00f71e63          	bne	a4,a5,4828 <_printf_i+0x18c>
    4810:	401c                	lw	a5,0(s0)
    4812:	8b85                	andi	a5,a5,1
    4814:	cb91                	beqz	a5,4828 <_printf_i+0x18c>
    4816:	4058                	lw	a4,4(s0)
    4818:	481c                	lw	a5,16(s0)
    481a:	00e7c763          	blt	a5,a4,4828 <_printf_i+0x18c>
    481e:	03000793          	li	a5,48
    4822:	fefa8fa3          	sb	a5,-1(s5)
    4826:	1afd                	addi	s5,s5,-1
    4828:	41560633          	sub	a2,a2,s5
    482c:	c810                	sw	a2,16(s0)
    482e:	874e                	mv	a4,s3
    4830:	86ca                	mv	a3,s2
    4832:	0070                	addi	a2,sp,12
    4834:	85a2                	mv	a1,s0
    4836:	8526                	mv	a0,s1
    4838:	d59ff0ef          	jal	ra,4590 <_printf_common>
    483c:	5a7d                	li	s4,-1
    483e:	0b451d63          	bne	a0,s4,48f8 <_printf_i+0x25c>
    4842:	557d                	li	a0,-1
    4844:	50b2                	lw	ra,44(sp)
    4846:	5422                	lw	s0,40(sp)
    4848:	5492                	lw	s1,36(sp)
    484a:	5902                	lw	s2,32(sp)
    484c:	49f2                	lw	s3,28(sp)
    484e:	4a62                	lw	s4,24(sp)
    4850:	4ad2                	lw	s5,20(sp)
    4852:	4b42                	lw	s6,16(sp)
    4854:	6145                	addi	sp,sp,48
    4856:	8082                	ret
    4858:	04d582a3          	sb	a3,69(a1)
    485c:	00002697          	auipc	a3,0x2
    4860:	9b468693          	addi	a3,a3,-1612 # 6210 <__month_lengths+0x74>
    4864:	400c                	lw	a1,0(s0)
    4866:	4308                	lw	a0,0(a4)
    4868:	0805f813          	andi	a6,a1,128
    486c:	411c                	lw	a5,0(a0)
    486e:	0511                	addi	a0,a0,4
    4870:	02080d63          	beqz	a6,48aa <_printf_i+0x20e>
    4874:	c308                	sw	a0,0(a4)
    4876:	0015f713          	andi	a4,a1,1
    487a:	c701                	beqz	a4,4882 <_printf_i+0x1e6>
    487c:	0205e593          	ori	a1,a1,32
    4880:	c00c                	sw	a1,0(s0)
    4882:	4741                	li	a4,16
    4884:	fbb9                	bnez	a5,47da <_printf_i+0x13e>
    4886:	400c                	lw	a1,0(s0)
    4888:	fdf5f593          	andi	a1,a1,-33
    488c:	c00c                	sw	a1,0(s0)
    488e:	b7b1                	j	47da <_printf_i+0x13e>
    4890:	419c                	lw	a5,0(a1)
    4892:	0207e793          	ori	a5,a5,32
    4896:	c19c                	sw	a5,0(a1)
    4898:	07800793          	li	a5,120
    489c:	04f402a3          	sb	a5,69(s0)
    48a0:	00002697          	auipc	a3,0x2
    48a4:	98468693          	addi	a3,a3,-1660 # 6224 <__month_lengths+0x88>
    48a8:	bf75                	j	4864 <_printf_i+0x1c8>
    48aa:	0405f813          	andi	a6,a1,64
    48ae:	c308                	sw	a0,0(a4)
    48b0:	fc0803e3          	beqz	a6,4876 <_printf_i+0x1da>
    48b4:	07c2                	slli	a5,a5,0x10
    48b6:	83c1                	srli	a5,a5,0x10
    48b8:	bf7d                	j	4876 <_printf_i+0x1da>
    48ba:	00002697          	auipc	a3,0x2
    48be:	95668693          	addi	a3,a3,-1706 # 6210 <__month_lengths+0x74>
    48c2:	4721                	li	a4,8
    48c4:	bf19                	j	47da <_printf_i+0x13e>
    48c6:	87ae                	mv	a5,a1
    48c8:	b735                	j	47f4 <_printf_i+0x158>
    48ca:	4194                	lw	a3,0(a1)
    48cc:	431c                	lw	a5,0(a4)
    48ce:	49cc                	lw	a1,20(a1)
    48d0:	0806f813          	andi	a6,a3,128
    48d4:	00478513          	addi	a0,a5,4
    48d8:	00080663          	beqz	a6,48e4 <_printf_i+0x248>
    48dc:	c308                	sw	a0,0(a4)
    48de:	439c                	lw	a5,0(a5)
    48e0:	c38c                	sw	a1,0(a5)
    48e2:	a039                	j	48f0 <_printf_i+0x254>
    48e4:	c308                	sw	a0,0(a4)
    48e6:	0406f693          	andi	a3,a3,64
    48ea:	439c                	lw	a5,0(a5)
    48ec:	daf5                	beqz	a3,48e0 <_printf_i+0x244>
    48ee:	a38e                	sh	a1,0(a5)
    48f0:	00042823          	sw	zero,16(s0)
    48f4:	8ab2                	mv	s5,a2
    48f6:	bf25                	j	482e <_printf_i+0x192>
    48f8:	4814                	lw	a3,16(s0)
    48fa:	8656                	mv	a2,s5
    48fc:	85ca                	mv	a1,s2
    48fe:	8526                	mv	a0,s1
    4900:	9982                	jalr	s3
    4902:	f54500e3          	beq	a0,s4,4842 <_printf_i+0x1a6>
    4906:	401c                	lw	a5,0(s0)
    4908:	8b89                	andi	a5,a5,2
    490a:	e78d                	bnez	a5,4934 <_printf_i+0x298>
    490c:	47b2                	lw	a5,12(sp)
    490e:	4448                	lw	a0,12(s0)
    4910:	f2f55ae3          	bge	a0,a5,4844 <_printf_i+0x1a8>
    4914:	853e                	mv	a0,a5
    4916:	b73d                	j	4844 <_printf_i+0x1a8>
    4918:	4685                	li	a3,1
    491a:	8656                	mv	a2,s5
    491c:	85ca                	mv	a1,s2
    491e:	8526                	mv	a0,s1
    4920:	9982                	jalr	s3
    4922:	f36500e3          	beq	a0,s6,4842 <_printf_i+0x1a6>
    4926:	0a05                	addi	s4,s4,1
    4928:	445c                	lw	a5,12(s0)
    492a:	4732                	lw	a4,12(sp)
    492c:	8f99                	sub	a5,a5,a4
    492e:	fefa45e3          	blt	s4,a5,4918 <_printf_i+0x27c>
    4932:	bfe9                	j	490c <_printf_i+0x270>
    4934:	4a01                	li	s4,0
    4936:	01940a93          	addi	s5,s0,25
    493a:	5b7d                	li	s6,-1
    493c:	b7f5                	j	4928 <_printf_i+0x28c>

0000493e <siscanf>:
    493e:	7171                	addi	sp,sp,-176
    4940:	d33e                	sw	a5,164(sp)
    4942:	20400793          	li	a5,516
    4946:	c706                	sw	ra,140(sp)
    4948:	c62e                	sw	a1,12(sp)
    494a:	cd32                	sw	a2,152(sp)
    494c:	cf36                	sw	a3,156(sp)
    494e:	d13a                	sw	a4,160(sp)
    4950:	d542                	sw	a6,168(sp)
    4952:	d746                	sw	a7,172(sp)
    4954:	02f11223          	sh	a5,36(sp)
    4958:	cc2a                	sw	a0,24(sp)
    495a:	d42a                	sw	a0,40(sp)
    495c:	955fe0ef          	jal	ra,32b0 <strlen>
    4960:	00000797          	auipc	a5,0x0
    4964:	05e78793          	addi	a5,a5,94 # 49be <__seofread>
    4968:	de3e                	sw	a5,60(sp)
    496a:	57fd                	li	a5,-1
    496c:	45b2                	lw	a1,12(sp)
    496e:	02f11323          	sh	a5,38(sp)
    4972:	80c18793          	addi	a5,gp,-2036 # 200002b4 <_impure_ptr>
    4976:	ce2a                	sw	a0,28(sp)
    4978:	d62a                	sw	a0,44(sp)
    497a:	4388                	lw	a0,0(a5)
    497c:	0934                	addi	a3,sp,152
    497e:	862e                	mv	a2,a1
    4980:	082c                	addi	a1,sp,24
    4982:	c682                	sw	zero,76(sp)
    4984:	d082                	sw	zero,96(sp)
    4986:	ca36                	sw	a3,20(sp)
    4988:	2b35                	jal	4ec4 <__ssvfiscanf_r>
    498a:	40ba                	lw	ra,140(sp)
    498c:	614d                	addi	sp,sp,176
    498e:	8082                	ret

00004990 <__sread>:
    4990:	1141                	addi	sp,sp,-16
    4992:	c422                	sw	s0,8(sp)
    4994:	842e                	mv	s0,a1
    4996:	00e59583          	lh	a1,14(a1)
    499a:	c606                	sw	ra,12(sp)
    499c:	405000ef          	jal	ra,55a0 <_read_r>
    49a0:	00054963          	bltz	a0,49b2 <__sread+0x22>
    49a4:	487c                	lw	a5,84(s0)
    49a6:	97aa                	add	a5,a5,a0
    49a8:	c87c                	sw	a5,84(s0)
    49aa:	40b2                	lw	ra,12(sp)
    49ac:	4422                	lw	s0,8(sp)
    49ae:	0141                	addi	sp,sp,16
    49b0:	8082                	ret
    49b2:	245e                	lhu	a5,12(s0)
    49b4:	777d                	lui	a4,0xfffff
    49b6:	177d                	addi	a4,a4,-1
    49b8:	8ff9                	and	a5,a5,a4
    49ba:	a45e                	sh	a5,12(s0)
    49bc:	b7fd                	j	49aa <__sread+0x1a>

000049be <__seofread>:
    49be:	4501                	li	a0,0
    49c0:	8082                	ret

000049c2 <__swrite>:
    49c2:	25de                	lhu	a5,12(a1)
    49c4:	1101                	addi	sp,sp,-32
    49c6:	cc22                	sw	s0,24(sp)
    49c8:	ca26                	sw	s1,20(sp)
    49ca:	c84a                	sw	s2,16(sp)
    49cc:	c64e                	sw	s3,12(sp)
    49ce:	ce06                	sw	ra,28(sp)
    49d0:	1007f793          	andi	a5,a5,256
    49d4:	84aa                	mv	s1,a0
    49d6:	842e                	mv	s0,a1
    49d8:	8932                	mv	s2,a2
    49da:	89b6                	mv	s3,a3
    49dc:	c791                	beqz	a5,49e8 <__swrite+0x26>
    49de:	00e59583          	lh	a1,14(a1)
    49e2:	4689                	li	a3,2
    49e4:	4601                	li	a2,0
    49e6:	24d5                	jal	4cca <_lseek_r>
    49e8:	245e                	lhu	a5,12(s0)
    49ea:	777d                	lui	a4,0xfffff
    49ec:	177d                	addi	a4,a4,-1
    49ee:	8ff9                	and	a5,a5,a4
    49f0:	a45e                	sh	a5,12(s0)
    49f2:	00e41583          	lh	a1,14(s0)
    49f6:	4462                	lw	s0,24(sp)
    49f8:	40f2                	lw	ra,28(sp)
    49fa:	86ce                	mv	a3,s3
    49fc:	864a                	mv	a2,s2
    49fe:	49b2                	lw	s3,12(sp)
    4a00:	4942                	lw	s2,16(sp)
    4a02:	8526                	mv	a0,s1
    4a04:	44d2                	lw	s1,20(sp)
    4a06:	6105                	addi	sp,sp,32
    4a08:	aac9                	j	4bda <_write_r>

00004a0a <__sseek>:
    4a0a:	1141                	addi	sp,sp,-16
    4a0c:	c422                	sw	s0,8(sp)
    4a0e:	842e                	mv	s0,a1
    4a10:	00e59583          	lh	a1,14(a1)
    4a14:	c606                	sw	ra,12(sp)
    4a16:	2c55                	jal	4cca <_lseek_r>
    4a18:	57fd                	li	a5,-1
    4a1a:	245a                	lhu	a4,12(s0)
    4a1c:	00f51a63          	bne	a0,a5,4a30 <__sseek+0x26>
    4a20:	77fd                	lui	a5,0xfffff
    4a22:	17fd                	addi	a5,a5,-1
    4a24:	8ff9                	and	a5,a5,a4
    4a26:	a45e                	sh	a5,12(s0)
    4a28:	40b2                	lw	ra,12(sp)
    4a2a:	4422                	lw	s0,8(sp)
    4a2c:	0141                	addi	sp,sp,16
    4a2e:	8082                	ret
    4a30:	6785                	lui	a5,0x1
    4a32:	8fd9                	or	a5,a5,a4
    4a34:	a45e                	sh	a5,12(s0)
    4a36:	c868                	sw	a0,84(s0)
    4a38:	bfc5                	j	4a28 <__sseek+0x1e>

00004a3a <__sclose>:
    4a3a:	00e59583          	lh	a1,14(a1)
    4a3e:	aac9                	j	4c10 <_close_r>

00004a40 <strcpy>:
    4a40:	87aa                	mv	a5,a0
    4a42:	2198                	lbu	a4,0(a1)
    4a44:	0785                	addi	a5,a5,1
    4a46:	0585                	addi	a1,a1,1
    4a48:	fee78fa3          	sb	a4,-1(a5) # fff <USART_ITConfig+0x35>
    4a4c:	fb7d                	bnez	a4,4a42 <strcpy+0x2>
    4a4e:	8082                	ret

00004a50 <strncmp>:
    4a50:	c215                	beqz	a2,4a74 <strncmp+0x24>
    4a52:	167d                	addi	a2,a2,-1
    4a54:	4701                	li	a4,0
    4a56:	00e507b3          	add	a5,a0,a4
    4a5a:	00e586b3          	add	a3,a1,a4
    4a5e:	239c                	lbu	a5,0(a5)
    4a60:	2294                	lbu	a3,0(a3)
    4a62:	00d79663          	bne	a5,a3,4a6e <strncmp+0x1e>
    4a66:	00c70463          	beq	a4,a2,4a6e <strncmp+0x1e>
    4a6a:	0705                	addi	a4,a4,1
    4a6c:	f7ed                	bnez	a5,4a56 <strncmp+0x6>
    4a6e:	40d78533          	sub	a0,a5,a3
    4a72:	8082                	ret
    4a74:	4501                	li	a0,0
    4a76:	8082                	ret

00004a78 <_strtoul_l.isra.0>:
    4a78:	7179                	addi	sp,sp,-48
    4a7a:	d04a                	sw	s2,32(sp)
    4a7c:	ce4e                	sw	s3,28(sp)
    4a7e:	d606                	sw	ra,44(sp)
    4a80:	d422                	sw	s0,40(sp)
    4a82:	d226                	sw	s1,36(sp)
    4a84:	89aa                	mv	s3,a0
    4a86:	892e                	mv	s2,a1
    4a88:	00190493          	addi	s1,s2,1
    4a8c:	fff4c403          	lbu	s0,-1(s1)
    4a90:	853a                	mv	a0,a4
    4a92:	c636                	sw	a3,12(sp)
    4a94:	c432                	sw	a2,8(sp)
    4a96:	c22e                	sw	a1,4(sp)
    4a98:	c03a                	sw	a4,0(sp)
    4a9a:	2c09                	jal	4cac <__locale_ctype_ptr_l>
    4a9c:	9522                	add	a0,a0,s0
    4a9e:	311c                	lbu	a5,1(a0)
    4aa0:	4702                	lw	a4,0(sp)
    4aa2:	4592                	lw	a1,4(sp)
    4aa4:	8ba1                	andi	a5,a5,8
    4aa6:	4622                	lw	a2,8(sp)
    4aa8:	46b2                	lw	a3,12(sp)
    4aaa:	efa5                	bnez	a5,4b22 <_strtoul_l.isra.0+0xaa>
    4aac:	02d00793          	li	a5,45
    4ab0:	06f41b63          	bne	s0,a5,4b26 <_strtoul_l.isra.0+0xae>
    4ab4:	209c                	lbu	a5,0(s1)
    4ab6:	4305                	li	t1,1
    4ab8:	00290493          	addi	s1,s2,2
    4abc:	cef9                	beqz	a3,4b9a <_strtoul_l.isra.0+0x122>
    4abe:	4741                	li	a4,16
    4ac0:	02e69063          	bne	a3,a4,4ae0 <_strtoul_l.isra.0+0x68>
    4ac4:	03000713          	li	a4,48
    4ac8:	00e79c63          	bne	a5,a4,4ae0 <_strtoul_l.isra.0+0x68>
    4acc:	209c                	lbu	a5,0(s1)
    4ace:	05800713          	li	a4,88
    4ad2:	0df7f793          	andi	a5,a5,223
    4ad6:	0ae79d63          	bne	a5,a4,4b90 <_strtoul_l.isra.0+0x118>
    4ada:	309c                	lbu	a5,1(s1)
    4adc:	46c1                	li	a3,16
    4ade:	0489                	addi	s1,s1,2
    4ae0:	577d                	li	a4,-1
    4ae2:	02d75e33          	divu	t3,a4,a3
    4ae6:	4801                	li	a6,0
    4ae8:	4501                	li	a0,0
    4aea:	4f25                	li	t5,9
    4aec:	4ee5                	li	t4,25
    4aee:	02d778b3          	remu	a7,a4,a3
    4af2:	fd078713          	addi	a4,a5,-48
    4af6:	04ef6363          	bltu	t5,a4,4b3c <_strtoul_l.isra.0+0xc4>
    4afa:	87ba                	mv	a5,a4
    4afc:	06d7d063          	bge	a5,a3,4b5c <_strtoul_l.isra.0+0xe4>
    4b00:	04084c63          	bltz	a6,4b58 <_strtoul_l.isra.0+0xe0>
    4b04:	587d                	li	a6,-1
    4b06:	00ae6a63          	bltu	t3,a0,4b1a <_strtoul_l.isra.0+0xa2>
    4b0a:	00ae1463          	bne	t3,a0,4b12 <_strtoul_l.isra.0+0x9a>
    4b0e:	00f8c663          	blt	a7,a5,4b1a <_strtoul_l.isra.0+0xa2>
    4b12:	4805                	li	a6,1
    4b14:	02a68533          	mul	a0,a3,a0
    4b18:	953e                	add	a0,a0,a5
    4b1a:	0485                	addi	s1,s1,1
    4b1c:	fff4c783          	lbu	a5,-1(s1)
    4b20:	bfc9                	j	4af2 <_strtoul_l.isra.0+0x7a>
    4b22:	8926                	mv	s2,s1
    4b24:	b795                	j	4a88 <_strtoul_l.isra.0+0x10>
    4b26:	02b00793          	li	a5,43
    4b2a:	00f40563          	beq	s0,a5,4b34 <_strtoul_l.isra.0+0xbc>
    4b2e:	87a2                	mv	a5,s0
    4b30:	4301                	li	t1,0
    4b32:	b769                	j	4abc <_strtoul_l.isra.0+0x44>
    4b34:	209c                	lbu	a5,0(s1)
    4b36:	00290493          	addi	s1,s2,2
    4b3a:	bfdd                	j	4b30 <_strtoul_l.isra.0+0xb8>
    4b3c:	fbf78713          	addi	a4,a5,-65
    4b40:	00eee563          	bltu	t4,a4,4b4a <_strtoul_l.isra.0+0xd2>
    4b44:	fc978793          	addi	a5,a5,-55
    4b48:	bf55                	j	4afc <_strtoul_l.isra.0+0x84>
    4b4a:	f9f78713          	addi	a4,a5,-97
    4b4e:	00eee763          	bltu	t4,a4,4b5c <_strtoul_l.isra.0+0xe4>
    4b52:	fa978793          	addi	a5,a5,-87
    4b56:	b75d                	j	4afc <_strtoul_l.isra.0+0x84>
    4b58:	587d                	li	a6,-1
    4b5a:	b7c1                	j	4b1a <_strtoul_l.isra.0+0xa2>
    4b5c:	00085f63          	bgez	a6,4b7a <_strtoul_l.isra.0+0x102>
    4b60:	02200793          	li	a5,34
    4b64:	00f9a023          	sw	a5,0(s3)
    4b68:	557d                	li	a0,-1
    4b6a:	ee19                	bnez	a2,4b88 <_strtoul_l.isra.0+0x110>
    4b6c:	50b2                	lw	ra,44(sp)
    4b6e:	5422                	lw	s0,40(sp)
    4b70:	5492                	lw	s1,36(sp)
    4b72:	5902                	lw	s2,32(sp)
    4b74:	49f2                	lw	s3,28(sp)
    4b76:	6145                	addi	sp,sp,48
    4b78:	8082                	ret
    4b7a:	00030463          	beqz	t1,4b82 <_strtoul_l.isra.0+0x10a>
    4b7e:	40a00533          	neg	a0,a0
    4b82:	d66d                	beqz	a2,4b6c <_strtoul_l.isra.0+0xf4>
    4b84:	00080463          	beqz	a6,4b8c <_strtoul_l.isra.0+0x114>
    4b88:	fff48593          	addi	a1,s1,-1
    4b8c:	c20c                	sw	a1,0(a2)
    4b8e:	bff9                	j	4b6c <_strtoul_l.isra.0+0xf4>
    4b90:	03000793          	li	a5,48
    4b94:	f6b1                	bnez	a3,4ae0 <_strtoul_l.isra.0+0x68>
    4b96:	46a1                	li	a3,8
    4b98:	b7a1                	j	4ae0 <_strtoul_l.isra.0+0x68>
    4b9a:	03000713          	li	a4,48
    4b9e:	f2e787e3          	beq	a5,a4,4acc <_strtoul_l.isra.0+0x54>
    4ba2:	46a9                	li	a3,10
    4ba4:	bf35                	j	4ae0 <_strtoul_l.isra.0+0x68>

00004ba6 <_strtoul_r>:
    4ba6:	80c18793          	addi	a5,gp,-2036 # 200002b4 <_impure_ptr>
    4baa:	439c                	lw	a5,0(a5)
    4bac:	5398                	lw	a4,32(a5)
    4bae:	e709                	bnez	a4,4bb8 <_strtoul_r+0x12>
    4bb0:	1fffb717          	auipc	a4,0x1fffb
    4bb4:	58870713          	addi	a4,a4,1416 # 20000138 <__global_locale>
    4bb8:	ec1ff06f          	j	4a78 <_strtoul_l.isra.0>

00004bbc <strtoul>:
    4bbc:	80c18793          	addi	a5,gp,-2036 # 200002b4 <_impure_ptr>
    4bc0:	439c                	lw	a5,0(a5)
    4bc2:	86b2                	mv	a3,a2
    4bc4:	5398                	lw	a4,32(a5)
    4bc6:	e709                	bnez	a4,4bd0 <strtoul+0x14>
    4bc8:	1fffb717          	auipc	a4,0x1fffb
    4bcc:	57070713          	addi	a4,a4,1392 # 20000138 <__global_locale>
    4bd0:	862e                	mv	a2,a1
    4bd2:	85aa                	mv	a1,a0
    4bd4:	853e                	mv	a0,a5
    4bd6:	ea3ff06f          	j	4a78 <_strtoul_l.isra.0>

00004bda <_write_r>:
    4bda:	1141                	addi	sp,sp,-16
    4bdc:	c422                	sw	s0,8(sp)
    4bde:	842a                	mv	s0,a0
    4be0:	852e                	mv	a0,a1
    4be2:	85b2                	mv	a1,a2
    4be4:	8636                	mv	a2,a3
    4be6:	1fffd797          	auipc	a5,0x1fffd
    4bea:	fa07a123          	sw	zero,-94(a5) # 20001b88 <errno>
    4bee:	c606                	sw	ra,12(sp)
    4bf0:	d38fc0ef          	jal	ra,1128 <_write>
    4bf4:	57fd                	li	a5,-1
    4bf6:	00f51963          	bne	a0,a5,4c08 <_write_r+0x2e>
    4bfa:	1fffd797          	auipc	a5,0x1fffd
    4bfe:	f8e78793          	addi	a5,a5,-114 # 20001b88 <errno>
    4c02:	439c                	lw	a5,0(a5)
    4c04:	c391                	beqz	a5,4c08 <_write_r+0x2e>
    4c06:	c01c                	sw	a5,0(s0)
    4c08:	40b2                	lw	ra,12(sp)
    4c0a:	4422                	lw	s0,8(sp)
    4c0c:	0141                	addi	sp,sp,16
    4c0e:	8082                	ret

00004c10 <_close_r>:
    4c10:	1141                	addi	sp,sp,-16
    4c12:	c422                	sw	s0,8(sp)
    4c14:	842a                	mv	s0,a0
    4c16:	852e                	mv	a0,a1
    4c18:	1fffd797          	auipc	a5,0x1fffd
    4c1c:	f607a823          	sw	zero,-144(a5) # 20001b88 <errno>
    4c20:	c606                	sw	ra,12(sp)
    4c22:	3d2010ef          	jal	ra,5ff4 <_close>
    4c26:	57fd                	li	a5,-1
    4c28:	00f51963          	bne	a0,a5,4c3a <_close_r+0x2a>
    4c2c:	1fffd797          	auipc	a5,0x1fffd
    4c30:	f5c78793          	addi	a5,a5,-164 # 20001b88 <errno>
    4c34:	439c                	lw	a5,0(a5)
    4c36:	c391                	beqz	a5,4c3a <_close_r+0x2a>
    4c38:	c01c                	sw	a5,0(s0)
    4c3a:	40b2                	lw	ra,12(sp)
    4c3c:	4422                	lw	s0,8(sp)
    4c3e:	0141                	addi	sp,sp,16
    4c40:	8082                	ret

00004c42 <__env_lock>:
    4c42:	8082                	ret

00004c44 <__env_unlock>:
    4c44:	8082                	ret

00004c46 <_fstat_r>:
    4c46:	1141                	addi	sp,sp,-16
    4c48:	c422                	sw	s0,8(sp)
    4c4a:	842a                	mv	s0,a0
    4c4c:	852e                	mv	a0,a1
    4c4e:	85b2                	mv	a1,a2
    4c50:	1fffd797          	auipc	a5,0x1fffd
    4c54:	f207ac23          	sw	zero,-200(a5) # 20001b88 <errno>
    4c58:	c606                	sw	ra,12(sp)
    4c5a:	3aa010ef          	jal	ra,6004 <_fstat>
    4c5e:	57fd                	li	a5,-1
    4c60:	00f51963          	bne	a0,a5,4c72 <_fstat_r+0x2c>
    4c64:	1fffd797          	auipc	a5,0x1fffd
    4c68:	f2478793          	addi	a5,a5,-220 # 20001b88 <errno>
    4c6c:	439c                	lw	a5,0(a5)
    4c6e:	c391                	beqz	a5,4c72 <_fstat_r+0x2c>
    4c70:	c01c                	sw	a5,0(s0)
    4c72:	40b2                	lw	ra,12(sp)
    4c74:	4422                	lw	s0,8(sp)
    4c76:	0141                	addi	sp,sp,16
    4c78:	8082                	ret

00004c7a <_isatty_r>:
    4c7a:	1141                	addi	sp,sp,-16
    4c7c:	c422                	sw	s0,8(sp)
    4c7e:	842a                	mv	s0,a0
    4c80:	852e                	mv	a0,a1
    4c82:	1fffd797          	auipc	a5,0x1fffd
    4c86:	f007a323          	sw	zero,-250(a5) # 20001b88 <errno>
    4c8a:	c606                	sw	ra,12(sp)
    4c8c:	388010ef          	jal	ra,6014 <_isatty>
    4c90:	57fd                	li	a5,-1
    4c92:	00f51963          	bne	a0,a5,4ca4 <_isatty_r+0x2a>
    4c96:	1fffd797          	auipc	a5,0x1fffd
    4c9a:	ef278793          	addi	a5,a5,-270 # 20001b88 <errno>
    4c9e:	439c                	lw	a5,0(a5)
    4ca0:	c391                	beqz	a5,4ca4 <_isatty_r+0x2a>
    4ca2:	c01c                	sw	a5,0(s0)
    4ca4:	40b2                	lw	ra,12(sp)
    4ca6:	4422                	lw	s0,8(sp)
    4ca8:	0141                	addi	sp,sp,16
    4caa:	8082                	ret

00004cac <__locale_ctype_ptr_l>:
    4cac:	0ec52503          	lw	a0,236(a0)
    4cb0:	8082                	ret

00004cb2 <__locale_ctype_ptr>:
    4cb2:	80c18793          	addi	a5,gp,-2036 # 200002b4 <_impure_ptr>
    4cb6:	439c                	lw	a5,0(a5)
    4cb8:	539c                	lw	a5,32(a5)
    4cba:	e789                	bnez	a5,4cc4 <__locale_ctype_ptr+0x12>
    4cbc:	1fffb797          	auipc	a5,0x1fffb
    4cc0:	47c78793          	addi	a5,a5,1148 # 20000138 <__global_locale>
    4cc4:	0ec7a503          	lw	a0,236(a5)
    4cc8:	8082                	ret

00004cca <_lseek_r>:
    4cca:	1141                	addi	sp,sp,-16
    4ccc:	c422                	sw	s0,8(sp)
    4cce:	842a                	mv	s0,a0
    4cd0:	852e                	mv	a0,a1
    4cd2:	85b2                	mv	a1,a2
    4cd4:	8636                	mv	a2,a3
    4cd6:	1fffd797          	auipc	a5,0x1fffd
    4cda:	ea07a923          	sw	zero,-334(a5) # 20001b88 <errno>
    4cde:	c606                	sw	ra,12(sp)
    4ce0:	344010ef          	jal	ra,6024 <_lseek>
    4ce4:	57fd                	li	a5,-1
    4ce6:	00f51963          	bne	a0,a5,4cf8 <_lseek_r+0x2e>
    4cea:	1fffd797          	auipc	a5,0x1fffd
    4cee:	e9e78793          	addi	a5,a5,-354 # 20001b88 <errno>
    4cf2:	439c                	lw	a5,0(a5)
    4cf4:	c391                	beqz	a5,4cf8 <_lseek_r+0x2e>
    4cf6:	c01c                	sw	a5,0(s0)
    4cf8:	40b2                	lw	ra,12(sp)
    4cfa:	4422                	lw	s0,8(sp)
    4cfc:	0141                	addi	sp,sp,16
    4cfe:	8082                	ret

00004d00 <__ascii_mbtowc>:
    4d00:	ed91                	bnez	a1,4d1c <__ascii_mbtowc+0x1c>
    4d02:	1141                	addi	sp,sp,-16
    4d04:	006c                	addi	a1,sp,12
    4d06:	4501                	li	a0,0
    4d08:	ca01                	beqz	a2,4d18 <__ascii_mbtowc+0x18>
    4d0a:	5579                	li	a0,-2
    4d0c:	c691                	beqz	a3,4d18 <__ascii_mbtowc+0x18>
    4d0e:	221c                	lbu	a5,0(a2)
    4d10:	c19c                	sw	a5,0(a1)
    4d12:	2208                	lbu	a0,0(a2)
    4d14:	00a03533          	snez	a0,a0
    4d18:	0141                	addi	sp,sp,16
    4d1a:	8082                	ret
    4d1c:	4501                	li	a0,0
    4d1e:	ca09                	beqz	a2,4d30 <__ascii_mbtowc+0x30>
    4d20:	5579                	li	a0,-2
    4d22:	c699                	beqz	a3,4d30 <__ascii_mbtowc+0x30>
    4d24:	221c                	lbu	a5,0(a2)
    4d26:	c19c                	sw	a5,0(a1)
    4d28:	2208                	lbu	a0,0(a2)
    4d2a:	00a03533          	snez	a0,a0
    4d2e:	8082                	ret
    4d30:	8082                	ret

00004d32 <memchr>:
    4d32:	0ff5f593          	andi	a1,a1,255
    4d36:	962a                	add	a2,a2,a0
    4d38:	00c51463          	bne	a0,a2,4d40 <memchr+0xe>
    4d3c:	4501                	li	a0,0
    4d3e:	8082                	ret
    4d40:	211c                	lbu	a5,0(a0)
    4d42:	feb78ee3          	beq	a5,a1,4d3e <memchr+0xc>
    4d46:	0505                	addi	a0,a0,1
    4d48:	bfc5                	j	4d38 <memchr+0x6>

00004d4a <memmove>:
    4d4a:	04a5f163          	bgeu	a1,a0,4d8c <memmove+0x42>
    4d4e:	00c586b3          	add	a3,a1,a2
    4d52:	02d57d63          	bgeu	a0,a3,4d8c <memmove+0x42>
    4d56:	fff64593          	not	a1,a2
    4d5a:	4781                	li	a5,0
    4d5c:	17fd                	addi	a5,a5,-1
    4d5e:	00f59363          	bne	a1,a5,4d64 <memmove+0x1a>
    4d62:	8082                	ret
    4d64:	00f68733          	add	a4,a3,a5
    4d68:	00074803          	lbu	a6,0(a4)
    4d6c:	00c78733          	add	a4,a5,a2
    4d70:	972a                	add	a4,a4,a0
    4d72:	01070023          	sb	a6,0(a4)
    4d76:	b7dd                	j	4d5c <memmove+0x12>
    4d78:	00f58733          	add	a4,a1,a5
    4d7c:	2314                	lbu	a3,0(a4)
    4d7e:	00f50733          	add	a4,a0,a5
    4d82:	0785                	addi	a5,a5,1
    4d84:	a314                	sb	a3,0(a4)
    4d86:	fef619e3          	bne	a2,a5,4d78 <memmove+0x2e>
    4d8a:	8082                	ret
    4d8c:	4781                	li	a5,0
    4d8e:	bfe5                	j	4d86 <memmove+0x3c>

00004d90 <_realloc_r>:
    4d90:	e581                	bnez	a1,4d98 <_realloc_r+0x8>
    4d92:	85b2                	mv	a1,a2
    4d94:	af0fe06f          	j	3084 <_malloc_r>
    4d98:	1101                	addi	sp,sp,-32
    4d9a:	cc22                	sw	s0,24(sp)
    4d9c:	ce06                	sw	ra,28(sp)
    4d9e:	ca26                	sw	s1,20(sp)
    4da0:	c84a                	sw	s2,16(sp)
    4da2:	c64e                	sw	s3,12(sp)
    4da4:	8432                	mv	s0,a2
    4da6:	ee01                	bnez	a2,4dbe <_realloc_r+0x2e>
    4da8:	a34fe0ef          	jal	ra,2fdc <_free_r>
    4dac:	4901                	li	s2,0
    4dae:	40f2                	lw	ra,28(sp)
    4db0:	4462                	lw	s0,24(sp)
    4db2:	854a                	mv	a0,s2
    4db4:	44d2                	lw	s1,20(sp)
    4db6:	4942                	lw	s2,16(sp)
    4db8:	49b2                	lw	s3,12(sp)
    4dba:	6105                	addi	sp,sp,32
    4dbc:	8082                	ret
    4dbe:	84ae                	mv	s1,a1
    4dc0:	89aa                	mv	s3,a0
    4dc2:	28b000ef          	jal	ra,584c <_malloc_usable_size_r>
    4dc6:	8926                	mv	s2,s1
    4dc8:	fe8573e3          	bgeu	a0,s0,4dae <_realloc_r+0x1e>
    4dcc:	85a2                	mv	a1,s0
    4dce:	854e                	mv	a0,s3
    4dd0:	ab4fe0ef          	jal	ra,3084 <_malloc_r>
    4dd4:	892a                	mv	s2,a0
    4dd6:	dd61                	beqz	a0,4dae <_realloc_r+0x1e>
    4dd8:	85a6                	mv	a1,s1
    4dda:	8622                	mv	a2,s0
    4ddc:	c2ffd0ef          	jal	ra,2a0a <memcpy>
    4de0:	85a6                	mv	a1,s1
    4de2:	854e                	mv	a0,s3
    4de4:	9f8fe0ef          	jal	ra,2fdc <_free_r>
    4de8:	b7d9                	j	4dae <_realloc_r+0x1e>

00004dea <_sungetc_r>:
    4dea:	1141                	addi	sp,sp,-16
    4dec:	c606                	sw	ra,12(sp)
    4dee:	c422                	sw	s0,8(sp)
    4df0:	c226                	sw	s1,4(sp)
    4df2:	c04a                	sw	s2,0(sp)
    4df4:	57fd                	li	a5,-1
    4df6:	00f59a63          	bne	a1,a5,4e0a <_sungetc_r+0x20>
    4dfa:	54fd                	li	s1,-1
    4dfc:	40b2                	lw	ra,12(sp)
    4dfe:	4422                	lw	s0,8(sp)
    4e00:	8526                	mv	a0,s1
    4e02:	4902                	lw	s2,0(sp)
    4e04:	4492                	lw	s1,4(sp)
    4e06:	0141                	addi	sp,sp,16
    4e08:	8082                	ret
    4e0a:	265e                	lhu	a5,12(a2)
    4e0c:	0ff5f913          	andi	s2,a1,255
    4e10:	0ff5f493          	andi	s1,a1,255
    4e14:	fdf7f793          	andi	a5,a5,-33
    4e18:	a65e                	sh	a5,12(a2)
    4e1a:	5a5c                	lw	a5,52(a2)
    4e1c:	4258                	lw	a4,4(a2)
    4e1e:	c785                	beqz	a5,4e46 <_sungetc_r+0x5c>
    4e20:	5e1c                	lw	a5,56(a2)
    4e22:	8432                	mv	s0,a2
    4e24:	00f75c63          	bge	a4,a5,4e3c <_sungetc_r+0x52>
    4e28:	401c                	lw	a5,0(s0)
    4e2a:	fff78713          	addi	a4,a5,-1
    4e2e:	c018                	sw	a4,0(s0)
    4e30:	ff278fa3          	sb	s2,-1(a5)
    4e34:	405c                	lw	a5,4(s0)
    4e36:	0785                	addi	a5,a5,1
    4e38:	c05c                	sw	a5,4(s0)
    4e3a:	b7c9                	j	4dfc <_sungetc_r+0x12>
    4e3c:	85b2                	mv	a1,a2
    4e3e:	16b000ef          	jal	ra,57a8 <__submore>
    4e42:	d17d                	beqz	a0,4e28 <_sungetc_r+0x3e>
    4e44:	bf5d                	j	4dfa <_sungetc_r+0x10>
    4e46:	4a14                	lw	a3,16(a2)
    4e48:	421c                	lw	a5,0(a2)
    4e4a:	ce81                	beqz	a3,4e62 <_sungetc_r+0x78>
    4e4c:	00f6fb63          	bgeu	a3,a5,4e62 <_sungetc_r+0x78>
    4e50:	fff7c683          	lbu	a3,-1(a5)
    4e54:	00969763          	bne	a3,s1,4e62 <_sungetc_r+0x78>
    4e58:	17fd                	addi	a5,a5,-1
    4e5a:	0705                	addi	a4,a4,1
    4e5c:	c21c                	sw	a5,0(a2)
    4e5e:	c258                	sw	a4,4(a2)
    4e60:	bf71                	j	4dfc <_sungetc_r+0x12>
    4e62:	de5c                	sw	a5,60(a2)
    4e64:	04460793          	addi	a5,a2,68
    4e68:	da5c                	sw	a5,52(a2)
    4e6a:	478d                	li	a5,3
    4e6c:	de1c                	sw	a5,56(a2)
    4e6e:	04660793          	addi	a5,a2,70
    4e72:	c21c                	sw	a5,0(a2)
    4e74:	4785                	li	a5,1
    4e76:	c238                	sw	a4,64(a2)
    4e78:	05260323          	sb	s2,70(a2)
    4e7c:	c25c                	sw	a5,4(a2)
    4e7e:	bfbd                	j	4dfc <_sungetc_r+0x12>

00004e80 <__ssrefill_r>:
    4e80:	1141                	addi	sp,sp,-16
    4e82:	c422                	sw	s0,8(sp)
    4e84:	842e                	mv	s0,a1
    4e86:	59cc                	lw	a1,52(a1)
    4e88:	c606                	sw	ra,12(sp)
    4e8a:	c19d                	beqz	a1,4eb0 <__ssrefill_r+0x30>
    4e8c:	04440793          	addi	a5,s0,68
    4e90:	00f58463          	beq	a1,a5,4e98 <__ssrefill_r+0x18>
    4e94:	948fe0ef          	jal	ra,2fdc <_free_r>
    4e98:	403c                	lw	a5,64(s0)
    4e9a:	02042a23          	sw	zero,52(s0)
    4e9e:	c05c                	sw	a5,4(s0)
    4ea0:	cb81                	beqz	a5,4eb0 <__ssrefill_r+0x30>
    4ea2:	5c5c                	lw	a5,60(s0)
    4ea4:	4501                	li	a0,0
    4ea6:	c01c                	sw	a5,0(s0)
    4ea8:	40b2                	lw	ra,12(sp)
    4eaa:	4422                	lw	s0,8(sp)
    4eac:	0141                	addi	sp,sp,16
    4eae:	8082                	ret
    4eb0:	481c                	lw	a5,16(s0)
    4eb2:	00042223          	sw	zero,4(s0)
    4eb6:	557d                	li	a0,-1
    4eb8:	c01c                	sw	a5,0(s0)
    4eba:	245e                	lhu	a5,12(s0)
    4ebc:	0207e793          	ori	a5,a5,32
    4ec0:	a45e                	sh	a5,12(s0)
    4ec2:	b7dd                	j	4ea8 <__ssrefill_r+0x28>

00004ec4 <__ssvfiscanf_r>:
    4ec4:	d2010113          	addi	sp,sp,-736
    4ec8:	00000797          	auipc	a5,0x0
    4ecc:	f2278793          	addi	a5,a5,-222 # 4dea <_sungetc_r>
    4ed0:	2d312623          	sw	s3,716(sp)
    4ed4:	28f12c23          	sw	a5,664(sp)
    4ed8:	01c10993          	addi	s3,sp,28
    4edc:	00000797          	auipc	a5,0x0
    4ee0:	fa478793          	addi	a5,a5,-92 # 4e80 <__ssrefill_r>
    4ee4:	2c812c23          	sw	s0,728(sp)
    4ee8:	2c912a23          	sw	s1,724(sp)
    4eec:	2d212823          	sw	s2,720(sp)
    4ef0:	2d412423          	sw	s4,712(sp)
    4ef4:	2d512223          	sw	s5,708(sp)
    4ef8:	2d612023          	sw	s6,704(sp)
    4efc:	2b712e23          	sw	s7,700(sp)
    4f00:	2b812c23          	sw	s8,696(sp)
    4f04:	2c112e23          	sw	ra,732(sp)
    4f08:	2b912a23          	sw	s9,692(sp)
    4f0c:	2ba12823          	sw	s10,688(sp)
    4f10:	2bb12623          	sw	s11,684(sp)
    4f14:	84aa                	mv	s1,a0
    4f16:	842e                	mv	s0,a1
    4f18:	12012423          	sw	zero,296(sp)
    4f1c:	12012623          	sw	zero,300(sp)
    4f20:	13312823          	sw	s3,304(sp)
    4f24:	28f12e23          	sw	a5,668(sp)
    4f28:	cc36                	sw	a3,24(sp)
    4f2a:	02500a13          	li	s4,37
    4f2e:	02a00b13          	li	s6,42
    4f32:	4ba5                	li	s7,9
    4f34:	4929                	li	s2,10
    4f36:	00001a97          	auipc	s5,0x1
    4f3a:	2cea8a93          	addi	s5,s5,718 # 6204 <__month_lengths+0x68>
    4f3e:	ffffbc17          	auipc	s8,0xffffb
    4f42:	0c2c0c13          	addi	s8,s8,194 # 0 <_sinit>
    4f46:	221c                	lbu	a5,0(a2)
    4f48:	c632                	sw	a2,12(sp)
    4f4a:	30078b63          	beqz	a5,5260 <__ssvfiscanf_r+0x39c>
    4f4e:	d65ff0ef          	jal	ra,4cb2 <__locale_ctype_ptr>
    4f52:	4632                	lw	a2,12(sp)
    4f54:	00064d83          	lbu	s11,0(a2)
    4f58:	00160c93          	addi	s9,a2,1
    4f5c:	956e                	add	a0,a0,s11
    4f5e:	311c                	lbu	a5,1(a0)
    4f60:	8ba1                	andi	a5,a5,8
    4f62:	c3a1                	beqz	a5,4fa2 <__ssvfiscanf_r+0xde>
    4f64:	405c                	lw	a5,4(s0)
    4f66:	02f05763          	blez	a5,4f94 <__ssvfiscanf_r+0xd0>
    4f6a:	d49ff0ef          	jal	ra,4cb2 <__locale_ctype_ptr>
    4f6e:	401c                	lw	a5,0(s0)
    4f70:	2398                	lbu	a4,0(a5)
    4f72:	953a                	add	a0,a0,a4
    4f74:	3118                	lbu	a4,1(a0)
    4f76:	8b21                	andi	a4,a4,8
    4f78:	e319                	bnez	a4,4f7e <__ssvfiscanf_r+0xba>
    4f7a:	8666                	mv	a2,s9
    4f7c:	b7e9                	j	4f46 <__ssvfiscanf_r+0x82>
    4f7e:	12c12703          	lw	a4,300(sp)
    4f82:	0785                	addi	a5,a5,1
    4f84:	c01c                	sw	a5,0(s0)
    4f86:	0705                	addi	a4,a4,1
    4f88:	12e12623          	sw	a4,300(sp)
    4f8c:	4058                	lw	a4,4(s0)
    4f8e:	177d                	addi	a4,a4,-1
    4f90:	c058                	sw	a4,4(s0)
    4f92:	bfc9                	j	4f64 <__ssvfiscanf_r+0xa0>
    4f94:	29c12783          	lw	a5,668(sp)
    4f98:	85a2                	mv	a1,s0
    4f9a:	8526                	mv	a0,s1
    4f9c:	9782                	jalr	a5
    4f9e:	d571                	beqz	a0,4f6a <__ssvfiscanf_r+0xa6>
    4fa0:	bfe9                	j	4f7a <__ssvfiscanf_r+0xb6>
    4fa2:	174d9763          	bne	s11,s4,5110 <__ssvfiscanf_r+0x24c>
    4fa6:	12012223          	sw	zero,292(sp)
    4faa:	10012e23          	sw	zero,284(sp)
    4fae:	321c                	lbu	a5,1(a2)
    4fb0:	01679763          	bne	a5,s6,4fbe <__ssvfiscanf_r+0xfa>
    4fb4:	47c1                	li	a5,16
    4fb6:	10f12e23          	sw	a5,284(sp)
    4fba:	00260c93          	addi	s9,a2,2
    4fbe:	000cc583          	lbu	a1,0(s9)
    4fc2:	8d66                	mv	s10,s9
    4fc4:	0c85                	addi	s9,s9,1
    4fc6:	fd058793          	addi	a5,a1,-48
    4fca:	06fbf063          	bgeu	s7,a5,502a <__ssvfiscanf_r+0x166>
    4fce:	460d                	li	a2,3
    4fd0:	8556                	mv	a0,s5
    4fd2:	d61ff0ef          	jal	ra,4d32 <memchr>
    4fd6:	cd01                	beqz	a0,4fee <__ssvfiscanf_r+0x12a>
    4fd8:	41550533          	sub	a0,a0,s5
    4fdc:	4785                	li	a5,1
    4fde:	00a797b3          	sll	a5,a5,a0
    4fe2:	11c12503          	lw	a0,284(sp)
    4fe6:	8d66                	mv	s10,s9
    4fe8:	8d5d                	or	a0,a0,a5
    4fea:	10a12e23          	sw	a0,284(sp)
    4fee:	000d4783          	lbu	a5,0(s10)
    4ff2:	06700713          	li	a4,103
    4ff6:	001d0c93          	addi	s9,s10,1
    4ffa:	08f76663          	bltu	a4,a5,5086 <__ssvfiscanf_r+0x1c2>
    4ffe:	06500713          	li	a4,101
    5002:	1ae7fb63          	bgeu	a5,a4,51b8 <__ssvfiscanf_r+0x2f4>
    5006:	04700713          	li	a4,71
    500a:	02f76a63          	bltu	a4,a5,503e <__ssvfiscanf_r+0x17a>
    500e:	04500713          	li	a4,69
    5012:	1ae7f363          	bgeu	a5,a4,51b8 <__ssvfiscanf_r+0x2f4>
    5016:	12078863          	beqz	a5,5146 <__ssvfiscanf_r+0x282>
    501a:	0f478b63          	beq	a5,s4,5110 <__ssvfiscanf_r+0x24c>
    501e:	478d                	li	a5,3
    5020:	12f12a23          	sw	a5,308(sp)
    5024:	13212023          	sw	s2,288(sp)
    5028:	a061                	j	50b0 <__ssvfiscanf_r+0x1ec>
    502a:	12412783          	lw	a5,292(sp)
    502e:	02f907b3          	mul	a5,s2,a5
    5032:	fd078793          	addi	a5,a5,-48
    5036:	97ae                	add	a5,a5,a1
    5038:	12f12223          	sw	a5,292(sp)
    503c:	b749                	j	4fbe <__ssvfiscanf_r+0xfa>
    503e:	05b00713          	li	a4,91
    5042:	12e78063          	beq	a5,a4,5162 <__ssvfiscanf_r+0x29e>
    5046:	02f76563          	bltu	a4,a5,5070 <__ssvfiscanf_r+0x1ac>
    504a:	05800713          	li	a4,88
    504e:	fce798e3          	bne	a5,a4,501e <__ssvfiscanf_r+0x15a>
    5052:	11c12703          	lw	a4,284(sp)
    5056:	20076713          	ori	a4,a4,512
    505a:	10e12e23          	sw	a4,284(sp)
    505e:	4741                	li	a4,16
    5060:	12e12023          	sw	a4,288(sp)
    5064:	06e00713          	li	a4,110
    5068:	00f737b3          	sltu	a5,a4,a5
    506c:	078d                	addi	a5,a5,3
    506e:	a83d                	j	50ac <__ssvfiscanf_r+0x1e8>
    5070:	06300713          	li	a4,99
    5074:	10e78363          	beq	a5,a4,517a <__ssvfiscanf_r+0x2b6>
    5078:	06400713          	li	a4,100
    507c:	fae791e3          	bne	a5,a4,501e <__ssvfiscanf_r+0x15a>
    5080:	13212023          	sw	s2,288(sp)
    5084:	b7c5                	j	5064 <__ssvfiscanf_r+0x1a0>
    5086:	07000713          	li	a4,112
    508a:	0ce78063          	beq	a5,a4,514a <__ssvfiscanf_r+0x286>
    508e:	06f76363          	bltu	a4,a5,50f4 <__ssvfiscanf_r+0x230>
    5092:	06e00713          	li	a4,110
    5096:	0ee78b63          	beq	a5,a4,518c <__ssvfiscanf_r+0x2c8>
    509a:	0af76f63          	bltu	a4,a5,5158 <__ssvfiscanf_r+0x294>
    509e:	06900713          	li	a4,105
    50a2:	f6e79ee3          	bne	a5,a4,501e <__ssvfiscanf_r+0x15a>
    50a6:	12012023          	sw	zero,288(sp)
    50aa:	478d                	li	a5,3
    50ac:	12f12a23          	sw	a5,308(sp)
    50b0:	405c                	lw	a5,4(s0)
    50b2:	10f05563          	blez	a5,51bc <__ssvfiscanf_r+0x2f8>
    50b6:	11c12783          	lw	a5,284(sp)
    50ba:	0407f793          	andi	a5,a5,64
    50be:	eb91                	bnez	a5,50d2 <__ssvfiscanf_r+0x20e>
    50c0:	bf3ff0ef          	jal	ra,4cb2 <__locale_ctype_ptr>
    50c4:	401c                	lw	a5,0(s0)
    50c6:	2398                	lbu	a4,0(a5)
    50c8:	953a                	add	a0,a0,a4
    50ca:	3118                	lbu	a4,1(a0)
    50cc:	8b21                	andi	a4,a4,8
    50ce:	0e071f63          	bnez	a4,51cc <__ssvfiscanf_r+0x308>
    50d2:	13412783          	lw	a5,308(sp)
    50d6:	4709                	li	a4,2
    50d8:	10f74f63          	blt	a4,a5,51f6 <__ssvfiscanf_r+0x332>
    50dc:	0834                	addi	a3,sp,24
    50de:	8622                	mv	a2,s0
    50e0:	0a6c                	addi	a1,sp,284
    50e2:	8526                	mv	a0,s1
    50e4:	2249                	jal	5266 <_scanf_chars>
    50e6:	4785                	li	a5,1
    50e8:	16f50c63          	beq	a0,a5,5260 <__ssvfiscanf_r+0x39c>
    50ec:	4789                	li	a5,2
    50ee:	e8f516e3          	bne	a0,a5,4f7a <__ssvfiscanf_r+0xb6>
    50f2:	a0b9                	j	5140 <__ssvfiscanf_r+0x27c>
    50f4:	07500713          	li	a4,117
    50f8:	f8e784e3          	beq	a5,a4,5080 <__ssvfiscanf_r+0x1bc>
    50fc:	07800713          	li	a4,120
    5100:	f4e789e3          	beq	a5,a4,5052 <__ssvfiscanf_r+0x18e>
    5104:	07300713          	li	a4,115
    5108:	f0e79be3          	bne	a5,a4,501e <__ssvfiscanf_r+0x15a>
    510c:	4789                	li	a5,2
    510e:	bf79                	j	50ac <__ssvfiscanf_r+0x1e8>
    5110:	405c                	lw	a5,4(s0)
    5112:	02f05163          	blez	a5,5134 <__ssvfiscanf_r+0x270>
    5116:	401c                	lw	a5,0(s0)
    5118:	2398                	lbu	a4,0(a5)
    511a:	15b71363          	bne	a4,s11,5260 <__ssvfiscanf_r+0x39c>
    511e:	0785                	addi	a5,a5,1
    5120:	4058                	lw	a4,4(s0)
    5122:	c01c                	sw	a5,0(s0)
    5124:	12c12783          	lw	a5,300(sp)
    5128:	177d                	addi	a4,a4,-1
    512a:	c058                	sw	a4,4(s0)
    512c:	0785                	addi	a5,a5,1
    512e:	12f12623          	sw	a5,300(sp)
    5132:	b5a1                	j	4f7a <__ssvfiscanf_r+0xb6>
    5134:	29c12783          	lw	a5,668(sp)
    5138:	85a2                	mv	a1,s0
    513a:	8526                	mv	a0,s1
    513c:	9782                	jalr	a5
    513e:	dd61                	beqz	a0,5116 <__ssvfiscanf_r+0x252>
    5140:	12812503          	lw	a0,296(sp)
    5144:	ed69                	bnez	a0,521e <__ssvfiscanf_r+0x35a>
    5146:	557d                	li	a0,-1
    5148:	a8f9                	j	5226 <__ssvfiscanf_r+0x362>
    514a:	11c12703          	lw	a4,284(sp)
    514e:	02076713          	ori	a4,a4,32
    5152:	10e12e23          	sw	a4,284(sp)
    5156:	bdf5                	j	5052 <__ssvfiscanf_r+0x18e>
    5158:	47a1                	li	a5,8
    515a:	12f12023          	sw	a5,288(sp)
    515e:	4791                	li	a5,4
    5160:	b7b1                	j	50ac <__ssvfiscanf_r+0x1e8>
    5162:	85e6                	mv	a1,s9
    5164:	854e                	mv	a0,s3
    5166:	2985                	jal	55d6 <__sccl>
    5168:	11c12783          	lw	a5,284(sp)
    516c:	8caa                	mv	s9,a0
    516e:	0407e793          	ori	a5,a5,64
    5172:	10f12e23          	sw	a5,284(sp)
    5176:	4785                	li	a5,1
    5178:	bf15                	j	50ac <__ssvfiscanf_r+0x1e8>
    517a:	11c12783          	lw	a5,284(sp)
    517e:	12012a23          	sw	zero,308(sp)
    5182:	0407e793          	ori	a5,a5,64
    5186:	10f12e23          	sw	a5,284(sp)
    518a:	b71d                	j	50b0 <__ssvfiscanf_r+0x1ec>
    518c:	11c12783          	lw	a5,284(sp)
    5190:	0107f713          	andi	a4,a5,16
    5194:	de0713e3          	bnez	a4,4f7a <__ssvfiscanf_r+0xb6>
    5198:	4762                	lw	a4,24(sp)
    519a:	0017f593          	andi	a1,a5,1
    519e:	12c12683          	lw	a3,300(sp)
    51a2:	00470613          	addi	a2,a4,4
    51a6:	c589                	beqz	a1,51b0 <__ssvfiscanf_r+0x2ec>
    51a8:	cc32                	sw	a2,24(sp)
    51aa:	431c                	lw	a5,0(a4)
    51ac:	a396                	sh	a3,0(a5)
    51ae:	b3f1                	j	4f7a <__ssvfiscanf_r+0xb6>
    51b0:	cc32                	sw	a2,24(sp)
    51b2:	431c                	lw	a5,0(a4)
    51b4:	c394                	sw	a3,0(a5)
    51b6:	b3d1                	j	4f7a <__ssvfiscanf_r+0xb6>
    51b8:	4795                	li	a5,5
    51ba:	bdcd                	j	50ac <__ssvfiscanf_r+0x1e8>
    51bc:	29c12783          	lw	a5,668(sp)
    51c0:	85a2                	mv	a1,s0
    51c2:	8526                	mv	a0,s1
    51c4:	9782                	jalr	a5
    51c6:	ee0508e3          	beqz	a0,50b6 <__ssvfiscanf_r+0x1f2>
    51ca:	bf9d                	j	5140 <__ssvfiscanf_r+0x27c>
    51cc:	12c12703          	lw	a4,300(sp)
    51d0:	0705                	addi	a4,a4,1
    51d2:	12e12623          	sw	a4,300(sp)
    51d6:	4058                	lw	a4,4(s0)
    51d8:	177d                	addi	a4,a4,-1
    51da:	c058                	sw	a4,4(s0)
    51dc:	00e05563          	blez	a4,51e6 <__ssvfiscanf_r+0x322>
    51e0:	0785                	addi	a5,a5,1
    51e2:	c01c                	sw	a5,0(s0)
    51e4:	bdf1                	j	50c0 <__ssvfiscanf_r+0x1fc>
    51e6:	29c12783          	lw	a5,668(sp)
    51ea:	85a2                	mv	a1,s0
    51ec:	8526                	mv	a0,s1
    51ee:	9782                	jalr	a5
    51f0:	ec0508e3          	beqz	a0,50c0 <__ssvfiscanf_r+0x1fc>
    51f4:	b7b1                	j	5140 <__ssvfiscanf_r+0x27c>
    51f6:	4711                	li	a4,4
    51f8:	00f74863          	blt	a4,a5,5208 <__ssvfiscanf_r+0x344>
    51fc:	0834                	addi	a3,sp,24
    51fe:	8622                	mv	a2,s0
    5200:	0a6c                	addi	a1,sp,284
    5202:	8526                	mv	a0,s1
    5204:	2291                	jal	5348 <_scanf_i>
    5206:	b5c5                	j	50e6 <__ssvfiscanf_r+0x222>
    5208:	d60c09e3          	beqz	s8,4f7a <__ssvfiscanf_r+0xb6>
    520c:	0834                	addi	a3,sp,24
    520e:	8622                	mv	a2,s0
    5210:	0a6c                	addi	a1,sp,284
    5212:	8526                	mv	a0,s1
    5214:	00000097          	auipc	ra,0x0
    5218:	000000e7          	jalr	zero # 0 <_sinit>
    521c:	b5e9                	j	50e6 <__ssvfiscanf_r+0x222>
    521e:	245e                	lhu	a5,12(s0)
    5220:	0407f793          	andi	a5,a5,64
    5224:	f38d                	bnez	a5,5146 <__ssvfiscanf_r+0x282>
    5226:	2dc12083          	lw	ra,732(sp)
    522a:	2d812403          	lw	s0,728(sp)
    522e:	2d412483          	lw	s1,724(sp)
    5232:	2d012903          	lw	s2,720(sp)
    5236:	2cc12983          	lw	s3,716(sp)
    523a:	2c812a03          	lw	s4,712(sp)
    523e:	2c412a83          	lw	s5,708(sp)
    5242:	2c012b03          	lw	s6,704(sp)
    5246:	2bc12b83          	lw	s7,700(sp)
    524a:	2b812c03          	lw	s8,696(sp)
    524e:	2b412c83          	lw	s9,692(sp)
    5252:	2b012d03          	lw	s10,688(sp)
    5256:	2ac12d83          	lw	s11,684(sp)
    525a:	2e010113          	addi	sp,sp,736
    525e:	8082                	ret
    5260:	12812503          	lw	a0,296(sp)
    5264:	b7c9                	j	5226 <__ssvfiscanf_r+0x362>

00005266 <_scanf_chars>:
    5266:	459c                	lw	a5,8(a1)
    5268:	1101                	addi	sp,sp,-32
    526a:	cc22                	sw	s0,24(sp)
    526c:	ca26                	sw	s1,20(sp)
    526e:	c452                	sw	s4,8(sp)
    5270:	ce06                	sw	ra,28(sp)
    5272:	c84a                	sw	s2,16(sp)
    5274:	c64e                	sw	s3,12(sp)
    5276:	c256                	sw	s5,4(sp)
    5278:	c05a                	sw	s6,0(sp)
    527a:	8a2a                	mv	s4,a0
    527c:	842e                	mv	s0,a1
    527e:	84b2                	mv	s1,a2
    5280:	e791                	bnez	a5,528c <_scanf_chars+0x26>
    5282:	4d98                	lw	a4,24(a1)
    5284:	4785                	li	a5,1
    5286:	c311                	beqz	a4,528a <_scanf_chars+0x24>
    5288:	57fd                	li	a5,-1
    528a:	c41c                	sw	a5,8(s0)
    528c:	401c                	lw	a5,0(s0)
    528e:	8bc1                	andi	a5,a5,16
    5290:	e799                	bnez	a5,529e <_scanf_chars+0x38>
    5292:	429c                	lw	a5,0(a3)
    5294:	00478713          	addi	a4,a5,4
    5298:	c298                	sw	a4,0(a3)
    529a:	0007a983          	lw	s3,0(a5)
    529e:	4901                	li	s2,0
    52a0:	4a85                	li	s5,1
    52a2:	4b09                	li	s6,2
    52a4:	4c08                	lw	a0,24(s0)
    52a6:	c50d                	beqz	a0,52d0 <_scanf_chars+0x6a>
    52a8:	07551f63          	bne	a0,s5,5326 <_scanf_chars+0xc0>
    52ac:	409c                	lw	a5,0(s1)
    52ae:	2398                	lbu	a4,0(a5)
    52b0:	485c                	lw	a5,20(s0)
    52b2:	97ba                	add	a5,a5,a4
    52b4:	239c                	lbu	a5,0(a5)
    52b6:	ef89                	bnez	a5,52d0 <_scanf_chars+0x6a>
    52b8:	04091763          	bnez	s2,5306 <_scanf_chars+0xa0>
    52bc:	40f2                	lw	ra,28(sp)
    52be:	4462                	lw	s0,24(sp)
    52c0:	44d2                	lw	s1,20(sp)
    52c2:	4942                	lw	s2,16(sp)
    52c4:	49b2                	lw	s3,12(sp)
    52c6:	4a22                	lw	s4,8(sp)
    52c8:	4a92                	lw	s5,4(sp)
    52ca:	4b02                	lw	s6,0(sp)
    52cc:	6105                	addi	sp,sp,32
    52ce:	8082                	ret
    52d0:	401c                	lw	a5,0(s0)
    52d2:	0905                	addi	s2,s2,1
    52d4:	8bc1                	andi	a5,a5,16
    52d6:	e791                	bnez	a5,52e2 <_scanf_chars+0x7c>
    52d8:	409c                	lw	a5,0(s1)
    52da:	0985                	addi	s3,s3,1
    52dc:	239c                	lbu	a5,0(a5)
    52de:	fef98fa3          	sb	a5,-1(s3)
    52e2:	4098                	lw	a4,0(s1)
    52e4:	40dc                	lw	a5,4(s1)
    52e6:	0705                	addi	a4,a4,1
    52e8:	c098                	sw	a4,0(s1)
    52ea:	4418                	lw	a4,8(s0)
    52ec:	17fd                	addi	a5,a5,-1
    52ee:	c0dc                	sw	a5,4(s1)
    52f0:	177d                	addi	a4,a4,-1
    52f2:	c418                	sw	a4,8(s0)
    52f4:	cb09                	beqz	a4,5306 <_scanf_chars+0xa0>
    52f6:	faf047e3          	bgtz	a5,52a4 <_scanf_chars+0x3e>
    52fa:	18042783          	lw	a5,384(s0)
    52fe:	85a6                	mv	a1,s1
    5300:	8552                	mv	a0,s4
    5302:	9782                	jalr	a5
    5304:	d145                	beqz	a0,52a4 <_scanf_chars+0x3e>
    5306:	401c                	lw	a5,0(s0)
    5308:	8bc1                	andi	a5,a5,16
    530a:	eb81                	bnez	a5,531a <_scanf_chars+0xb4>
    530c:	445c                	lw	a5,12(s0)
    530e:	0785                	addi	a5,a5,1
    5310:	c45c                	sw	a5,12(s0)
    5312:	4c1c                	lw	a5,24(s0)
    5314:	c399                	beqz	a5,531a <_scanf_chars+0xb4>
    5316:	00098023          	sb	zero,0(s3)
    531a:	481c                	lw	a5,16(s0)
    531c:	4501                	li	a0,0
    531e:	993e                	add	s2,s2,a5
    5320:	01242823          	sw	s2,16(s0)
    5324:	bf61                	j	52bc <_scanf_chars+0x56>
    5326:	01651a63          	bne	a0,s6,533a <_scanf_chars+0xd4>
    532a:	989ff0ef          	jal	ra,4cb2 <__locale_ctype_ptr>
    532e:	409c                	lw	a5,0(s1)
    5330:	239c                	lbu	a5,0(a5)
    5332:	953e                	add	a0,a0,a5
    5334:	311c                	lbu	a5,1(a0)
    5336:	8ba1                	andi	a5,a5,8
    5338:	dfc1                	beqz	a5,52d0 <_scanf_chars+0x6a>
    533a:	fc0916e3          	bnez	s2,5306 <_scanf_chars+0xa0>
    533e:	4c08                	lw	a0,24(s0)
    5340:	4785                	li	a5,1
    5342:	fcf512e3          	bne	a0,a5,5306 <_scanf_chars+0xa0>
    5346:	bf9d                	j	52bc <_scanf_chars+0x56>

00005348 <_scanf_i>:
    5348:	715d                	addi	sp,sp,-80
    534a:	00001797          	auipc	a5,0x1
    534e:	f1278793          	addi	a5,a5,-238 # 625c <__month_lengths+0xc0>
    5352:	c0ca                	sw	s2,64(sp)
    5354:	c23e                	sw	a5,4(sp)
    5356:	8936                	mv	s2,a3
    5358:	00001797          	auipc	a5,0x1
    535c:	f0878793          	addi	a5,a5,-248 # 6260 <__month_lengths+0xc4>
    5360:	4d94                	lw	a3,24(a1)
    5362:	c43e                	sw	a5,8(sp)
    5364:	00001797          	auipc	a5,0x1
    5368:	f0078793          	addi	a5,a5,-256 # 6264 <__month_lengths+0xc8>
    536c:	c4a2                	sw	s0,72(sp)
    536e:	de4e                	sw	s3,60(sp)
    5370:	d85a                	sw	s6,48(sp)
    5372:	ce6e                	sw	s11,28(sp)
    5374:	c63e                	sw	a5,12(sp)
    5376:	c686                	sw	ra,76(sp)
    5378:	c2a6                	sw	s1,68(sp)
    537a:	dc52                	sw	s4,56(sp)
    537c:	da56                	sw	s5,52(sp)
    537e:	d65e                	sw	s7,44(sp)
    5380:	d462                	sw	s8,40(sp)
    5382:	d266                	sw	s9,36(sp)
    5384:	d06a                	sw	s10,32(sp)
    5386:	478d                	li	a5,3
    5388:	89aa                	mv	s3,a0
    538a:	842e                	mv	s0,a1
    538c:	8db2                	mv	s11,a2
    538e:	00000b17          	auipc	s6,0x0
    5392:	818b0b13          	addi	s6,s6,-2024 # 4ba6 <_strtoul_r>
    5396:	00f69663          	bne	a3,a5,53a2 <_scanf_i+0x5a>
    539a:	00000b17          	auipc	s6,0x0
    539e:	3f8b0b13          	addi	s6,s6,1016 # 5792 <_strtol_r>
    53a2:	441c                	lw	a5,8(s0)
    53a4:	15c00693          	li	a3,348
    53a8:	4a01                	li	s4,0
    53aa:	fff78613          	addi	a2,a5,-1
    53ae:	00c6f763          	bgeu	a3,a2,53bc <_scanf_i+0x74>
    53b2:	ea378a13          	addi	s4,a5,-349
    53b6:	15d00793          	li	a5,349
    53ba:	c41c                	sw	a5,8(s0)
    53bc:	401c                	lw	a5,0(s0)
    53be:	6685                	lui	a3,0x1
    53c0:	d0068693          	addi	a3,a3,-768 # d00 <RTC_GetCounter+0x2a>
    53c4:	01c40493          	addi	s1,s0,28
    53c8:	8fd5                	or	a5,a5,a3
    53ca:	c01c                	sw	a5,0(s0)
    53cc:	00410c13          	addi	s8,sp,4
    53d0:	8aa6                	mv	s5,s1
    53d2:	4b81                	li	s7,0
    53d4:	20000c93          	li	s9,512
    53d8:	000da783          	lw	a5,0(s11)
    53dc:	000c2503          	lw	a0,0(s8)
    53e0:	4609                	li	a2,2
    53e2:	238c                	lbu	a1,0(a5)
    53e4:	94fff0ef          	jal	ra,4d32 <memchr>
    53e8:	cd39                	beqz	a0,5446 <_scanf_i+0xfe>
    53ea:	4785                	li	a5,1
    53ec:	0cfb9e63          	bne	s7,a5,54c8 <_scanf_i+0x180>
    53f0:	405c                	lw	a5,4(s0)
    53f2:	e799                	bnez	a5,5400 <_scanf_i+0xb8>
    53f4:	401c                	lw	a5,0(s0)
    53f6:	4721                	li	a4,8
    53f8:	c058                	sw	a4,4(s0)
    53fa:	2007e793          	ori	a5,a5,512
    53fe:	c01c                	sw	a5,0(s0)
    5400:	401c                	lw	a5,0(s0)
    5402:	aff7f793          	andi	a5,a5,-1281
    5406:	c01c                	sw	a5,0(s0)
    5408:	441c                	lw	a5,8(s0)
    540a:	fff78613          	addi	a2,a5,-1
    540e:	c410                	sw	a2,8(s0)
    5410:	cb9d                	beqz	a5,5446 <_scanf_i+0xfe>
    5412:	000da603          	lw	a2,0(s11)
    5416:	001a8d13          	addi	s10,s5,1
    541a:	00160793          	addi	a5,a2,1
    541e:	00fda023          	sw	a5,0(s11)
    5422:	2210                	lbu	a2,0(a2)
    5424:	00ca8023          	sb	a2,0(s5)
    5428:	004da603          	lw	a2,4(s11)
    542c:	8aea                	mv	s5,s10
    542e:	167d                	addi	a2,a2,-1
    5430:	00cda223          	sw	a2,4(s11)
    5434:	00c04963          	bgtz	a2,5446 <_scanf_i+0xfe>
    5438:	18042603          	lw	a2,384(s0)
    543c:	85ee                	mv	a1,s11
    543e:	854e                	mv	a0,s3
    5440:	9602                	jalr	a2
    5442:	10051863          	bnez	a0,5552 <_scanf_i+0x20a>
    5446:	0b85                	addi	s7,s7,1
    5448:	478d                	li	a5,3
    544a:	0c11                	addi	s8,s8,4
    544c:	f8fb96e3          	bne	s7,a5,53d8 <_scanf_i+0x90>
    5450:	405c                	lw	a5,4(s0)
    5452:	e399                	bnez	a5,5458 <_scanf_i+0x110>
    5454:	47a9                	li	a5,10
    5456:	c05c                	sw	a5,4(s0)
    5458:	405c                	lw	a5,4(s0)
    545a:	4848                	lw	a0,20(s0)
    545c:	00001597          	auipc	a1,0x1
    5460:	dfc58593          	addi	a1,a1,-516 # 6258 <__month_lengths+0xbc>
    5464:	8d9d                	sub	a1,a1,a5
    5466:	7bfd                	lui	s7,0xfffff
    5468:	6c05                	lui	s8,0x1
    546a:	8d56                	mv	s10,s5
    546c:	22ad                	jal	55d6 <__sccl>
    546e:	4a81                	li	s5,0
    5470:	03000c93          	li	s9,48
    5474:	6ffb8b93          	addi	s7,s7,1791 # fffff6ff <_eusrstack+0xdfff76ff>
    5478:	800c0c13          	addi	s8,s8,-2048 # 800 <__stack_size>
    547c:	4414                	lw	a3,8(s0)
    547e:	4010                	lw	a2,0(s0)
    5480:	cebd                	beqz	a3,54fe <_scanf_i+0x1b6>
    5482:	000da503          	lw	a0,0(s11)
    5486:	484c                	lw	a1,20(s0)
    5488:	00054803          	lbu	a6,0(a0)
    548c:	95c2                	add	a1,a1,a6
    548e:	218c                	lbu	a1,0(a1)
    5490:	c5bd                	beqz	a1,54fe <_scanf_i+0x1b6>
    5492:	05981863          	bne	a6,s9,54e2 <_scanf_i+0x19a>
    5496:	018675b3          	and	a1,a2,s8
    549a:	c5a1                	beqz	a1,54e2 <_scanf_i+0x19a>
    549c:	0a85                	addi	s5,s5,1
    549e:	000a0563          	beqz	s4,54a8 <_scanf_i+0x160>
    54a2:	0685                	addi	a3,a3,1
    54a4:	1a7d                	addi	s4,s4,-1
    54a6:	c414                	sw	a3,8(s0)
    54a8:	004da683          	lw	a3,4(s11)
    54ac:	16fd                	addi	a3,a3,-1
    54ae:	00dda223          	sw	a3,4(s11)
    54b2:	04d05063          	blez	a3,54f2 <_scanf_i+0x1aa>
    54b6:	000da683          	lw	a3,0(s11)
    54ba:	0685                	addi	a3,a3,1
    54bc:	00dda023          	sw	a3,0(s11)
    54c0:	4414                	lw	a3,8(s0)
    54c2:	16fd                	addi	a3,a3,-1
    54c4:	c414                	sw	a3,8(s0)
    54c6:	bf5d                	j	547c <_scanf_i+0x134>
    54c8:	4789                	li	a5,2
    54ca:	f2fb9fe3          	bne	s7,a5,5408 <_scanf_i+0xc0>
    54ce:	401c                	lw	a5,0(s0)
    54d0:	6007f613          	andi	a2,a5,1536
    54d4:	f79619e3          	bne	a2,s9,5446 <_scanf_i+0xfe>
    54d8:	4741                	li	a4,16
    54da:	c058                	sw	a4,4(s0)
    54dc:	1007e793          	ori	a5,a5,256
    54e0:	b71d                	j	5406 <_scanf_i+0xbe>
    54e2:	01767633          	and	a2,a2,s7
    54e6:	c010                	sw	a2,0(s0)
    54e8:	2114                	lbu	a3,0(a0)
    54ea:	0d05                	addi	s10,s10,1
    54ec:	fedd0fa3          	sb	a3,-1(s10)
    54f0:	bf65                	j	54a8 <_scanf_i+0x160>
    54f2:	18042683          	lw	a3,384(s0)
    54f6:	85ee                	mv	a1,s11
    54f8:	854e                	mv	a0,s3
    54fa:	9682                	jalr	a3
    54fc:	d171                	beqz	a0,54c0 <_scanf_i+0x178>
    54fe:	4014                	lw	a3,0(s0)
    5500:	1006f693          	andi	a3,a3,256
    5504:	c285                	beqz	a3,5524 <_scanf_i+0x1dc>
    5506:	01a4fc63          	bgeu	s1,s10,551e <_scanf_i+0x1d6>
    550a:	fffd4583          	lbu	a1,-1(s10)
    550e:	17c42683          	lw	a3,380(s0)
    5512:	fffd0a13          	addi	s4,s10,-1
    5516:	866e                	mv	a2,s11
    5518:	854e                	mv	a0,s3
    551a:	9682                	jalr	a3
    551c:	8d52                	mv	s10,s4
    551e:	4505                	li	a0,1
    5520:	049d0e63          	beq	s10,s1,557c <_scanf_i+0x234>
    5524:	4018                	lw	a4,0(s0)
    5526:	8b41                	andi	a4,a4,16
    5528:	e339                	bnez	a4,556e <_scanf_i+0x226>
    552a:	000d0023          	sb	zero,0(s10)
    552e:	4054                	lw	a3,4(s0)
    5530:	4601                	li	a2,0
    5532:	85a6                	mv	a1,s1
    5534:	854e                	mv	a0,s3
    5536:	9b02                	jalr	s6
    5538:	4014                	lw	a3,0(s0)
    553a:	00092703          	lw	a4,0(s2)
    553e:	0206f613          	andi	a2,a3,32
    5542:	ca11                	beqz	a2,5556 <_scanf_i+0x20e>
    5544:	00470693          	addi	a3,a4,4
    5548:	00d92023          	sw	a3,0(s2)
    554c:	4318                	lw	a4,0(a4)
    554e:	c308                	sw	a0,0(a4)
    5550:	a821                	j	5568 <_scanf_i+0x220>
    5552:	4a81                	li	s5,0
    5554:	b76d                	j	54fe <_scanf_i+0x1b6>
    5556:	0016f593          	andi	a1,a3,1
    555a:	00470613          	addi	a2,a4,4
    555e:	cd95                	beqz	a1,559a <_scanf_i+0x252>
    5560:	00c92023          	sw	a2,0(s2)
    5564:	4318                	lw	a4,0(a4)
    5566:	a30a                	sh	a0,0(a4)
    5568:	4458                	lw	a4,12(s0)
    556a:	0705                	addi	a4,a4,1
    556c:	c458                	sw	a4,12(s0)
    556e:	481c                	lw	a5,16(s0)
    5570:	409d04b3          	sub	s1,s10,s1
    5574:	94d6                	add	s1,s1,s5
    5576:	94be                	add	s1,s1,a5
    5578:	c804                	sw	s1,16(s0)
    557a:	4501                	li	a0,0
    557c:	40b6                	lw	ra,76(sp)
    557e:	4426                	lw	s0,72(sp)
    5580:	4496                	lw	s1,68(sp)
    5582:	4906                	lw	s2,64(sp)
    5584:	59f2                	lw	s3,60(sp)
    5586:	5a62                	lw	s4,56(sp)
    5588:	5ad2                	lw	s5,52(sp)
    558a:	5b42                	lw	s6,48(sp)
    558c:	5bb2                	lw	s7,44(sp)
    558e:	5c22                	lw	s8,40(sp)
    5590:	5c92                	lw	s9,36(sp)
    5592:	5d02                	lw	s10,32(sp)
    5594:	4df2                	lw	s11,28(sp)
    5596:	6161                	addi	sp,sp,80
    5598:	8082                	ret
    559a:	00c92023          	sw	a2,0(s2)
    559e:	b77d                	j	554c <_scanf_i+0x204>

000055a0 <_read_r>:
    55a0:	1141                	addi	sp,sp,-16
    55a2:	c422                	sw	s0,8(sp)
    55a4:	842a                	mv	s0,a0
    55a6:	852e                	mv	a0,a1
    55a8:	85b2                	mv	a1,a2
    55aa:	8636                	mv	a2,a3
    55ac:	1fffc797          	auipc	a5,0x1fffc
    55b0:	5c07ae23          	sw	zero,1500(a5) # 20001b88 <errno>
    55b4:	c606                	sw	ra,12(sp)
    55b6:	27f000ef          	jal	ra,6034 <_read>
    55ba:	57fd                	li	a5,-1
    55bc:	00f51963          	bne	a0,a5,55ce <_read_r+0x2e>
    55c0:	1fffc797          	auipc	a5,0x1fffc
    55c4:	5c878793          	addi	a5,a5,1480 # 20001b88 <errno>
    55c8:	439c                	lw	a5,0(a5)
    55ca:	c391                	beqz	a5,55ce <_read_r+0x2e>
    55cc:	c01c                	sw	a5,0(s0)
    55ce:	40b2                	lw	ra,12(sp)
    55d0:	4422                	lw	s0,8(sp)
    55d2:	0141                	addi	sp,sp,16
    55d4:	8082                	ret

000055d6 <__sccl>:
    55d6:	219c                	lbu	a5,0(a1)
    55d8:	05e00713          	li	a4,94
    55dc:	04e78663          	beq	a5,a4,5628 <__sccl+0x52>
    55e0:	00158713          	addi	a4,a1,1
    55e4:	4681                	li	a3,0
    55e6:	4601                	li	a2,0
    55e8:	10000593          	li	a1,256
    55ec:	00c50833          	add	a6,a0,a2
    55f0:	00d80023          	sb	a3,0(a6)
    55f4:	0605                	addi	a2,a2,1
    55f6:	feb61be3          	bne	a2,a1,55ec <__sccl+0x16>
    55fa:	fff70613          	addi	a2,a4,-1
    55fe:	c39d                	beqz	a5,5624 <__sccl+0x4e>
    5600:	0016c693          	xori	a3,a3,1
    5604:	02d00893          	li	a7,45
    5608:	05d00813          	li	a6,93
    560c:	00f50633          	add	a2,a0,a5
    5610:	a214                	sb	a3,0(a2)
    5612:	230c                	lbu	a1,0(a4)
    5614:	00170613          	addi	a2,a4,1
    5618:	03158363          	beq	a1,a7,563e <__sccl+0x68>
    561c:	01058463          	beq	a1,a6,5624 <__sccl+0x4e>
    5620:	e989                	bnez	a1,5632 <__sccl+0x5c>
    5622:	863a                	mv	a2,a4
    5624:	8532                	mv	a0,a2
    5626:	8082                	ret
    5628:	00258713          	addi	a4,a1,2
    562c:	319c                	lbu	a5,1(a1)
    562e:	4685                	li	a3,1
    5630:	bf5d                	j	55e6 <__sccl+0x10>
    5632:	87ae                	mv	a5,a1
    5634:	8732                	mv	a4,a2
    5636:	bfd9                	j	560c <__sccl+0x36>
    5638:	02d00793          	li	a5,45
    563c:	bfe5                	j	5634 <__sccl+0x5e>
    563e:	330c                	lbu	a1,1(a4)
    5640:	ff058ce3          	beq	a1,a6,5638 <__sccl+0x62>
    5644:	fef5cae3          	blt	a1,a5,5638 <__sccl+0x62>
    5648:	0709                	addi	a4,a4,2
    564a:	0785                	addi	a5,a5,1
    564c:	00f50633          	add	a2,a0,a5
    5650:	a214                	sb	a3,0(a2)
    5652:	feb7cce3          	blt	a5,a1,564a <__sccl+0x74>
    5656:	bf75                	j	5612 <__sccl+0x3c>

00005658 <_strtol_l.isra.0>:
    5658:	7179                	addi	sp,sp,-48
    565a:	d04a                	sw	s2,32(sp)
    565c:	ce4e                	sw	s3,28(sp)
    565e:	d606                	sw	ra,44(sp)
    5660:	d422                	sw	s0,40(sp)
    5662:	d226                	sw	s1,36(sp)
    5664:	89aa                	mv	s3,a0
    5666:	892e                	mv	s2,a1
    5668:	00190493          	addi	s1,s2,1
    566c:	fff4c403          	lbu	s0,-1(s1)
    5670:	853a                	mv	a0,a4
    5672:	c636                	sw	a3,12(sp)
    5674:	c432                	sw	a2,8(sp)
    5676:	c22e                	sw	a1,4(sp)
    5678:	c03a                	sw	a4,0(sp)
    567a:	e32ff0ef          	jal	ra,4cac <__locale_ctype_ptr_l>
    567e:	9522                	add	a0,a0,s0
    5680:	311c                	lbu	a5,1(a0)
    5682:	4702                	lw	a4,0(sp)
    5684:	4592                	lw	a1,4(sp)
    5686:	8ba1                	andi	a5,a5,8
    5688:	4622                	lw	a2,8(sp)
    568a:	46b2                	lw	a3,12(sp)
    568c:	e3d1                	bnez	a5,5710 <_strtol_l.isra.0+0xb8>
    568e:	02d00793          	li	a5,45
    5692:	08f41163          	bne	s0,a5,5714 <_strtol_l.isra.0+0xbc>
    5696:	209c                	lbu	a5,0(s1)
    5698:	4305                	li	t1,1
    569a:	00290493          	addi	s1,s2,2
    569e:	c6e5                	beqz	a3,5786 <_strtol_l.isra.0+0x12e>
    56a0:	4741                	li	a4,16
    56a2:	02e69063          	bne	a3,a4,56c2 <_strtol_l.isra.0+0x6a>
    56a6:	03000713          	li	a4,48
    56aa:	00e79c63          	bne	a5,a4,56c2 <_strtol_l.isra.0+0x6a>
    56ae:	209c                	lbu	a5,0(s1)
    56b0:	05800713          	li	a4,88
    56b4:	0df7f793          	andi	a5,a5,223
    56b8:	0ce79263          	bne	a5,a4,577c <_strtol_l.isra.0+0x124>
    56bc:	309c                	lbu	a5,1(s1)
    56be:	46c1                	li	a3,16
    56c0:	0489                	addi	s1,s1,2
    56c2:	800008b7          	lui	a7,0x80000
    56c6:	00031463          	bnez	t1,56ce <_strtol_l.isra.0+0x76>
    56ca:	fff8c893          	not	a7,a7
    56ce:	02d8ff33          	remu	t5,a7,a3
    56d2:	4801                	li	a6,0
    56d4:	4501                	li	a0,0
    56d6:	4fa5                	li	t6,9
    56d8:	4ee5                	li	t4,25
    56da:	52fd                	li	t0,-1
    56dc:	02d8de33          	divu	t3,a7,a3
    56e0:	fd078713          	addi	a4,a5,-48
    56e4:	04efe363          	bltu	t6,a4,572a <_strtol_l.isra.0+0xd2>
    56e8:	87ba                	mv	a5,a4
    56ea:	04d7de63          	bge	a5,a3,5746 <_strtol_l.isra.0+0xee>
    56ee:	00580d63          	beq	a6,t0,5708 <_strtol_l.isra.0+0xb0>
    56f2:	587d                	li	a6,-1
    56f4:	00ae6a63          	bltu	t3,a0,5708 <_strtol_l.isra.0+0xb0>
    56f8:	00ae1463          	bne	t3,a0,5700 <_strtol_l.isra.0+0xa8>
    56fc:	00ff4663          	blt	t5,a5,5708 <_strtol_l.isra.0+0xb0>
    5700:	4805                	li	a6,1
    5702:	02a68533          	mul	a0,a3,a0
    5706:	953e                	add	a0,a0,a5
    5708:	0485                	addi	s1,s1,1
    570a:	fff4c783          	lbu	a5,-1(s1)
    570e:	bfc9                	j	56e0 <_strtol_l.isra.0+0x88>
    5710:	8926                	mv	s2,s1
    5712:	bf99                	j	5668 <_strtol_l.isra.0+0x10>
    5714:	02b00793          	li	a5,43
    5718:	00f40563          	beq	s0,a5,5722 <_strtol_l.isra.0+0xca>
    571c:	87a2                	mv	a5,s0
    571e:	4301                	li	t1,0
    5720:	bfbd                	j	569e <_strtol_l.isra.0+0x46>
    5722:	209c                	lbu	a5,0(s1)
    5724:	00290493          	addi	s1,s2,2
    5728:	bfdd                	j	571e <_strtol_l.isra.0+0xc6>
    572a:	fbf78713          	addi	a4,a5,-65
    572e:	00eee563          	bltu	t4,a4,5738 <_strtol_l.isra.0+0xe0>
    5732:	fc978793          	addi	a5,a5,-55
    5736:	bf55                	j	56ea <_strtol_l.isra.0+0x92>
    5738:	f9f78713          	addi	a4,a5,-97
    573c:	00eee563          	bltu	t4,a4,5746 <_strtol_l.isra.0+0xee>
    5740:	fa978793          	addi	a5,a5,-87
    5744:	b75d                	j	56ea <_strtol_l.isra.0+0x92>
    5746:	57fd                	li	a5,-1
    5748:	00f81f63          	bne	a6,a5,5766 <_strtol_l.isra.0+0x10e>
    574c:	02200793          	li	a5,34
    5750:	00f9a023          	sw	a5,0(s3)
    5754:	8546                	mv	a0,a7
    5756:	ee19                	bnez	a2,5774 <_strtol_l.isra.0+0x11c>
    5758:	50b2                	lw	ra,44(sp)
    575a:	5422                	lw	s0,40(sp)
    575c:	5492                	lw	s1,36(sp)
    575e:	5902                	lw	s2,32(sp)
    5760:	49f2                	lw	s3,28(sp)
    5762:	6145                	addi	sp,sp,48
    5764:	8082                	ret
    5766:	00030463          	beqz	t1,576e <_strtol_l.isra.0+0x116>
    576a:	40a00533          	neg	a0,a0
    576e:	d66d                	beqz	a2,5758 <_strtol_l.isra.0+0x100>
    5770:	00080463          	beqz	a6,5778 <_strtol_l.isra.0+0x120>
    5774:	fff48593          	addi	a1,s1,-1
    5778:	c20c                	sw	a1,0(a2)
    577a:	bff9                	j	5758 <_strtol_l.isra.0+0x100>
    577c:	03000793          	li	a5,48
    5780:	f2a9                	bnez	a3,56c2 <_strtol_l.isra.0+0x6a>
    5782:	46a1                	li	a3,8
    5784:	bf3d                	j	56c2 <_strtol_l.isra.0+0x6a>
    5786:	03000713          	li	a4,48
    578a:	f2e782e3          	beq	a5,a4,56ae <_strtol_l.isra.0+0x56>
    578e:	46a9                	li	a3,10
    5790:	bf0d                	j	56c2 <_strtol_l.isra.0+0x6a>

00005792 <_strtol_r>:
    5792:	80c18793          	addi	a5,gp,-2036 # 200002b4 <_impure_ptr>
    5796:	439c                	lw	a5,0(a5)
    5798:	5398                	lw	a4,32(a5)
    579a:	e709                	bnez	a4,57a4 <_strtol_r+0x12>
    579c:	1fffb717          	auipc	a4,0x1fffb
    57a0:	99c70713          	addi	a4,a4,-1636 # 20000138 <__global_locale>
    57a4:	eb5ff06f          	j	5658 <_strtol_l.isra.0>

000057a8 <__submore>:
    57a8:	1101                	addi	sp,sp,-32
    57aa:	cc22                	sw	s0,24(sp)
    57ac:	842e                	mv	s0,a1
    57ae:	59cc                	lw	a1,52(a1)
    57b0:	ce06                	sw	ra,28(sp)
    57b2:	ca26                	sw	s1,20(sp)
    57b4:	c84a                	sw	s2,16(sp)
    57b6:	c64e                	sw	s3,12(sp)
    57b8:	c452                	sw	s4,8(sp)
    57ba:	04440793          	addi	a5,s0,68
    57be:	04f59263          	bne	a1,a5,5802 <__submore+0x5a>
    57c2:	40000593          	li	a1,1024
    57c6:	8bffd0ef          	jal	ra,3084 <_malloc_r>
    57ca:	e911                	bnez	a0,57de <__submore+0x36>
    57cc:	557d                	li	a0,-1
    57ce:	40f2                	lw	ra,28(sp)
    57d0:	4462                	lw	s0,24(sp)
    57d2:	44d2                	lw	s1,20(sp)
    57d4:	4942                	lw	s2,16(sp)
    57d6:	49b2                	lw	s3,12(sp)
    57d8:	4a22                	lw	s4,8(sp)
    57da:	6105                	addi	sp,sp,32
    57dc:	8082                	ret
    57de:	40000793          	li	a5,1024
    57e2:	dc1c                	sw	a5,56(s0)
    57e4:	04644783          	lbu	a5,70(s0)
    57e8:	d848                	sw	a0,52(s0)
    57ea:	3fd50513          	addi	a0,a0,1021
    57ee:	a13c                	sb	a5,2(a0)
    57f0:	04544783          	lbu	a5,69(s0)
    57f4:	b11c                	sb	a5,1(a0)
    57f6:	04444783          	lbu	a5,68(s0)
    57fa:	a11c                	sb	a5,0(a0)
    57fc:	c008                	sw	a0,0(s0)
    57fe:	4501                	li	a0,0
    5800:	b7f9                	j	57ce <__submore+0x26>
    5802:	03842903          	lw	s2,56(s0)
    5806:	00191993          	slli	s3,s2,0x1
    580a:	864e                	mv	a2,s3
    580c:	d84ff0ef          	jal	ra,4d90 <_realloc_r>
    5810:	84aa                	mv	s1,a0
    5812:	dd4d                	beqz	a0,57cc <__submore+0x24>
    5814:	01250a33          	add	s4,a0,s2
    5818:	85aa                	mv	a1,a0
    581a:	864a                	mv	a2,s2
    581c:	8552                	mv	a0,s4
    581e:	9ecfd0ef          	jal	ra,2a0a <memcpy>
    5822:	01442023          	sw	s4,0(s0)
    5826:	d844                	sw	s1,52(s0)
    5828:	03342c23          	sw	s3,56(s0)
    582c:	bfc9                	j	57fe <__submore+0x56>

0000582e <__ascii_wctomb>:
    582e:	cd89                	beqz	a1,5848 <__ascii_wctomb+0x1a>
    5830:	0ff00793          	li	a5,255
    5834:	00c7f763          	bgeu	a5,a2,5842 <__ascii_wctomb+0x14>
    5838:	08a00793          	li	a5,138
    583c:	c11c                	sw	a5,0(a0)
    583e:	557d                	li	a0,-1
    5840:	8082                	ret
    5842:	a190                	sb	a2,0(a1)
    5844:	4505                	li	a0,1
    5846:	8082                	ret
    5848:	4501                	li	a0,0
    584a:	8082                	ret

0000584c <_malloc_usable_size_r>:
    584c:	ffc5a783          	lw	a5,-4(a1)
    5850:	ffc78513          	addi	a0,a5,-4
    5854:	0007d563          	bgez	a5,585e <_malloc_usable_size_r+0x12>
    5858:	95aa                	add	a1,a1,a0
    585a:	419c                	lw	a5,0(a1)
    585c:	953e                	add	a0,a0,a5
    585e:	8082                	ret

00005860 <__divdi3>:
    5860:	4801                	li	a6,0
    5862:	0e05c563          	bltz	a1,594c <__divdi3+0xec>
    5866:	0006db63          	bgez	a3,587c <__divdi3+0x1c>
    586a:	40c00633          	neg	a2,a2
    586e:	00c037b3          	snez	a5,a2
    5872:	40d006b3          	neg	a3,a3
    5876:	fff84813          	not	a6,a6
    587a:	8e9d                	sub	a3,a3,a5
    587c:	87b6                	mv	a5,a3
    587e:	8332                	mv	t1,a2
    5880:	8eaa                	mv	t4,a0
    5882:	88ae                	mv	a7,a1
    5884:	16069f63          	bnez	a3,5a02 <__divdi3+0x1a2>
    5888:	0cc5fb63          	bgeu	a1,a2,595e <__divdi3+0xfe>
    588c:	6741                	lui	a4,0x10
    588e:	1ce66f63          	bltu	a2,a4,5a6c <__divdi3+0x20c>
    5892:	010007b7          	lui	a5,0x1000
    5896:	36f66363          	bltu	a2,a5,5bfc <__divdi3+0x39c>
    589a:	01865693          	srli	a3,a2,0x18
    589e:	47e1                	li	a5,24
    58a0:	00001717          	auipc	a4,0x1
    58a4:	acc70713          	addi	a4,a4,-1332 # 636c <__clz_tab>
    58a8:	9736                	add	a4,a4,a3
    58aa:	2318                	lbu	a4,0(a4)
    58ac:	97ba                	add	a5,a5,a4
    58ae:	02000713          	li	a4,32
    58b2:	8f1d                	sub	a4,a4,a5
    58b4:	cb19                	beqz	a4,58ca <__divdi3+0x6a>
    58b6:	00e595b3          	sll	a1,a1,a4
    58ba:	00f557b3          	srl	a5,a0,a5
    58be:	00e61333          	sll	t1,a2,a4
    58c2:	00b7e8b3          	or	a7,a5,a1
    58c6:	00e51eb3          	sll	t4,a0,a4
    58ca:	01035613          	srli	a2,t1,0x10
    58ce:	02c8d7b3          	divu	a5,a7,a2
    58d2:	01031693          	slli	a3,t1,0x10
    58d6:	82c1                	srli	a3,a3,0x10
    58d8:	010ed713          	srli	a4,t4,0x10
    58dc:	02c8f5b3          	remu	a1,a7,a2
    58e0:	02f68533          	mul	a0,a3,a5
    58e4:	05c2                	slli	a1,a1,0x10
    58e6:	00e5e8b3          	or	a7,a1,a4
    58ea:	00a8fa63          	bgeu	a7,a0,58fe <__divdi3+0x9e>
    58ee:	989a                	add	a7,a7,t1
    58f0:	fff78713          	addi	a4,a5,-1 # ffffff <_data_lma+0xff9b93>
    58f4:	0068e463          	bltu	a7,t1,58fc <__divdi3+0x9c>
    58f8:	32a8e863          	bltu	a7,a0,5c28 <__divdi3+0x3c8>
    58fc:	87ba                	mv	a5,a4
    58fe:	40a888b3          	sub	a7,a7,a0
    5902:	02c8d5b3          	divu	a1,a7,a2
    5906:	0ec2                	slli	t4,t4,0x10
    5908:	010ede93          	srli	t4,t4,0x10
    590c:	02c8f8b3          	remu	a7,a7,a2
    5910:	02b686b3          	mul	a3,a3,a1
    5914:	08c2                	slli	a7,a7,0x10
    5916:	01d8e8b3          	or	a7,a7,t4
    591a:	00d8fb63          	bgeu	a7,a3,5930 <__divdi3+0xd0>
    591e:	989a                	add	a7,a7,t1
    5920:	fff58713          	addi	a4,a1,-1
    5924:	0068e563          	bltu	a7,t1,592e <__divdi3+0xce>
    5928:	15f9                	addi	a1,a1,-2
    592a:	00d8e363          	bltu	a7,a3,5930 <__divdi3+0xd0>
    592e:	85ba                	mv	a1,a4
    5930:	01079513          	slli	a0,a5,0x10
    5934:	8d4d                	or	a0,a0,a1
    5936:	4581                	li	a1,0
    5938:	00080963          	beqz	a6,594a <__divdi3+0xea>
    593c:	40a00533          	neg	a0,a0
    5940:	00a037b3          	snez	a5,a0
    5944:	40b005b3          	neg	a1,a1
    5948:	8d9d                	sub	a1,a1,a5
    594a:	8082                	ret
    594c:	40a00533          	neg	a0,a0
    5950:	00a037b3          	snez	a5,a0
    5954:	40b005b3          	neg	a1,a1
    5958:	8d9d                	sub	a1,a1,a5
    595a:	587d                	li	a6,-1
    595c:	b729                	j	5866 <__divdi3+0x6>
    595e:	e601                	bnez	a2,5966 <__divdi3+0x106>
    5960:	4305                	li	t1,1
    5962:	02d35333          	divu	t1,t1,a3
    5966:	6741                	lui	a4,0x10
    5968:	0ee36963          	bltu	t1,a4,5a5a <__divdi3+0x1fa>
    596c:	010007b7          	lui	a5,0x1000
    5970:	28f36a63          	bltu	t1,a5,5c04 <__divdi3+0x3a4>
    5974:	01835693          	srli	a3,t1,0x18
    5978:	47e1                	li	a5,24
    597a:	00001717          	auipc	a4,0x1
    597e:	9f270713          	addi	a4,a4,-1550 # 636c <__clz_tab>
    5982:	9736                	add	a4,a4,a3
    5984:	2318                	lbu	a4,0(a4)
    5986:	97ba                	add	a5,a5,a4
    5988:	02000713          	li	a4,32
    598c:	8f1d                	sub	a4,a4,a5
    598e:	eb65                	bnez	a4,5a7e <__divdi3+0x21e>
    5990:	01031893          	slli	a7,t1,0x10
    5994:	406586b3          	sub	a3,a1,t1
    5998:	01035f13          	srli	t5,t1,0x10
    599c:	0108d893          	srli	a7,a7,0x10
    59a0:	4585                	li	a1,1
    59a2:	010ed713          	srli	a4,t4,0x10
    59a6:	03e6d7b3          	divu	a5,a3,t5
    59aa:	03e6f6b3          	remu	a3,a3,t5
    59ae:	03178633          	mul	a2,a5,a7
    59b2:	06c2                	slli	a3,a3,0x10
    59b4:	8f55                	or	a4,a4,a3
    59b6:	00c77a63          	bgeu	a4,a2,59ca <__divdi3+0x16a>
    59ba:	971a                	add	a4,a4,t1
    59bc:	fff78693          	addi	a3,a5,-1 # ffffff <_data_lma+0xff9b93>
    59c0:	00676463          	bltu	a4,t1,59c8 <__divdi3+0x168>
    59c4:	26c76563          	bltu	a4,a2,5c2e <__divdi3+0x3ce>
    59c8:	87b6                	mv	a5,a3
    59ca:	8f11                	sub	a4,a4,a2
    59cc:	03e756b3          	divu	a3,a4,t5
    59d0:	0ec2                	slli	t4,t4,0x10
    59d2:	010ede93          	srli	t4,t4,0x10
    59d6:	03e77733          	remu	a4,a4,t5
    59da:	031688b3          	mul	a7,a3,a7
    59de:	0742                	slli	a4,a4,0x10
    59e0:	01d76733          	or	a4,a4,t4
    59e4:	01177b63          	bgeu	a4,a7,59fa <__divdi3+0x19a>
    59e8:	971a                	add	a4,a4,t1
    59ea:	fff68613          	addi	a2,a3,-1
    59ee:	00676563          	bltu	a4,t1,59f8 <__divdi3+0x198>
    59f2:	16f9                	addi	a3,a3,-2
    59f4:	01176363          	bltu	a4,a7,59fa <__divdi3+0x19a>
    59f8:	86b2                	mv	a3,a2
    59fa:	01079513          	slli	a0,a5,0x10
    59fe:	8d55                	or	a0,a0,a3
    5a00:	bf25                	j	5938 <__divdi3+0xd8>
    5a02:	04d5e163          	bltu	a1,a3,5a44 <__divdi3+0x1e4>
    5a06:	67c1                	lui	a5,0x10
    5a08:	04f6e163          	bltu	a3,a5,5a4a <__divdi3+0x1ea>
    5a0c:	010007b7          	lui	a5,0x1000
    5a10:	1ef6e263          	bltu	a3,a5,5bf4 <__divdi3+0x394>
    5a14:	0186d893          	srli	a7,a3,0x18
    5a18:	4761                	li	a4,24
    5a1a:	00001797          	auipc	a5,0x1
    5a1e:	95278793          	addi	a5,a5,-1710 # 636c <__clz_tab>
    5a22:	97c6                	add	a5,a5,a7
    5a24:	0007c303          	lbu	t1,0(a5)
    5a28:	02000793          	li	a5,32
    5a2c:	933a                	add	t1,t1,a4
    5a2e:	406787b3          	sub	a5,a5,t1
    5a32:	ebe9                	bnez	a5,5b04 <__divdi3+0x2a4>
    5a34:	1cb6ec63          	bltu	a3,a1,5c0c <__divdi3+0x3ac>
    5a38:	00c53533          	sltu	a0,a0,a2
    5a3c:	00154513          	xori	a0,a0,1
    5a40:	4581                	li	a1,0
    5a42:	bddd                	j	5938 <__divdi3+0xd8>
    5a44:	4581                	li	a1,0
    5a46:	4501                	li	a0,0
    5a48:	bdc5                	j	5938 <__divdi3+0xd8>
    5a4a:	0ff00793          	li	a5,255
    5a4e:	1cd7f263          	bgeu	a5,a3,5c12 <__divdi3+0x3b2>
    5a52:	0086d893          	srli	a7,a3,0x8
    5a56:	4721                	li	a4,8
    5a58:	b7c9                	j	5a1a <__divdi3+0x1ba>
    5a5a:	0ff00713          	li	a4,255
    5a5e:	869a                	mv	a3,t1
    5a60:	f0677de3          	bgeu	a4,t1,597a <__divdi3+0x11a>
    5a64:	00835693          	srli	a3,t1,0x8
    5a68:	47a1                	li	a5,8
    5a6a:	bf01                	j	597a <__divdi3+0x11a>
    5a6c:	0ff00713          	li	a4,255
    5a70:	86b2                	mv	a3,a2
    5a72:	e2c777e3          	bgeu	a4,a2,58a0 <__divdi3+0x40>
    5a76:	00865693          	srli	a3,a2,0x8
    5a7a:	47a1                	li	a5,8
    5a7c:	b515                	j	58a0 <__divdi3+0x40>
    5a7e:	00e31333          	sll	t1,t1,a4
    5a82:	00f5d633          	srl	a2,a1,a5
    5a86:	01035f13          	srli	t5,t1,0x10
    5a8a:	03e65e33          	divu	t3,a2,t5
    5a8e:	00e596b3          	sll	a3,a1,a4
    5a92:	00f557b3          	srl	a5,a0,a5
    5a96:	8edd                	or	a3,a3,a5
    5a98:	01031893          	slli	a7,t1,0x10
    5a9c:	0108d893          	srli	a7,a7,0x10
    5aa0:	00e51eb3          	sll	t4,a0,a4
    5aa4:	0106d593          	srli	a1,a3,0x10
    5aa8:	03e677b3          	remu	a5,a2,t5
    5aac:	03c88733          	mul	a4,a7,t3
    5ab0:	07c2                	slli	a5,a5,0x10
    5ab2:	8fcd                	or	a5,a5,a1
    5ab4:	00e7fb63          	bgeu	a5,a4,5aca <__divdi3+0x26a>
    5ab8:	979a                	add	a5,a5,t1
    5aba:	fffe0613          	addi	a2,t3,-1
    5abe:	1667e363          	bltu	a5,t1,5c24 <__divdi3+0x3c4>
    5ac2:	16e7f163          	bgeu	a5,a4,5c24 <__divdi3+0x3c4>
    5ac6:	1e79                	addi	t3,t3,-2
    5ac8:	979a                	add	a5,a5,t1
    5aca:	8f99                	sub	a5,a5,a4
    5acc:	03e7d633          	divu	a2,a5,t5
    5ad0:	01069713          	slli	a4,a3,0x10
    5ad4:	8341                	srli	a4,a4,0x10
    5ad6:	03e7f7b3          	remu	a5,a5,t5
    5ada:	02c88533          	mul	a0,a7,a2
    5ade:	01079693          	slli	a3,a5,0x10
    5ae2:	8ed9                	or	a3,a3,a4
    5ae4:	00a6fb63          	bgeu	a3,a0,5afa <__divdi3+0x29a>
    5ae8:	969a                	add	a3,a3,t1
    5aea:	fff60793          	addi	a5,a2,-1
    5aee:	1266e763          	bltu	a3,t1,5c1c <__divdi3+0x3bc>
    5af2:	12a6f563          	bgeu	a3,a0,5c1c <__divdi3+0x3bc>
    5af6:	1679                	addi	a2,a2,-2
    5af8:	969a                	add	a3,a3,t1
    5afa:	010e1593          	slli	a1,t3,0x10
    5afe:	8e89                	sub	a3,a3,a0
    5b00:	8dd1                	or	a1,a1,a2
    5b02:	b545                	j	59a2 <__divdi3+0x142>
    5b04:	00665733          	srl	a4,a2,t1
    5b08:	00f696b3          	sll	a3,a3,a5
    5b0c:	8ed9                	or	a3,a3,a4
    5b0e:	0065d8b3          	srl	a7,a1,t1
    5b12:	0106df13          	srli	t5,a3,0x10
    5b16:	03e8deb3          	divu	t4,a7,t5
    5b1a:	01069e13          	slli	t3,a3,0x10
    5b1e:	00655333          	srl	t1,a0,t1
    5b22:	010e5e13          	srli	t3,t3,0x10
    5b26:	00f595b3          	sll	a1,a1,a5
    5b2a:	00b365b3          	or	a1,t1,a1
    5b2e:	0105d713          	srli	a4,a1,0x10
    5b32:	00f61633          	sll	a2,a2,a5
    5b36:	03e8f8b3          	remu	a7,a7,t5
    5b3a:	03de0333          	mul	t1,t3,t4
    5b3e:	08c2                	slli	a7,a7,0x10
    5b40:	00e8e733          	or	a4,a7,a4
    5b44:	00677b63          	bgeu	a4,t1,5b5a <__divdi3+0x2fa>
    5b48:	9736                	add	a4,a4,a3
    5b4a:	fffe8893          	addi	a7,t4,-1
    5b4e:	0cd76963          	bltu	a4,a3,5c20 <__divdi3+0x3c0>
    5b52:	0c677763          	bgeu	a4,t1,5c20 <__divdi3+0x3c0>
    5b56:	1ef9                	addi	t4,t4,-2
    5b58:	9736                	add	a4,a4,a3
    5b5a:	40670733          	sub	a4,a4,t1
    5b5e:	03e75333          	divu	t1,a4,t5
    5b62:	05c2                	slli	a1,a1,0x10
    5b64:	81c1                	srli	a1,a1,0x10
    5b66:	03e77733          	remu	a4,a4,t5
    5b6a:	026e08b3          	mul	a7,t3,t1
    5b6e:	0742                	slli	a4,a4,0x10
    5b70:	8dd9                	or	a1,a1,a4
    5b72:	0115fb63          	bgeu	a1,a7,5b88 <__divdi3+0x328>
    5b76:	95b6                	add	a1,a1,a3
    5b78:	fff30713          	addi	a4,t1,-1
    5b7c:	08d5ee63          	bltu	a1,a3,5c18 <__divdi3+0x3b8>
    5b80:	0915fc63          	bgeu	a1,a7,5c18 <__divdi3+0x3b8>
    5b84:	1379                	addi	t1,t1,-2
    5b86:	95b6                	add	a1,a1,a3
    5b88:	0ec2                	slli	t4,t4,0x10
    5b8a:	6f41                	lui	t5,0x10
    5b8c:	006eeeb3          	or	t4,t4,t1
    5b90:	ffff0713          	addi	a4,t5,-1 # ffff <_data_lma+0x9b93>
    5b94:	00eef6b3          	and	a3,t4,a4
    5b98:	010ed313          	srli	t1,t4,0x10
    5b9c:	8f71                	and	a4,a4,a2
    5b9e:	8241                	srli	a2,a2,0x10
    5ba0:	02e68e33          	mul	t3,a3,a4
    5ba4:	411585b3          	sub	a1,a1,a7
    5ba8:	02c686b3          	mul	a3,a3,a2
    5bac:	010e5893          	srli	a7,t3,0x10
    5bb0:	02e30733          	mul	a4,t1,a4
    5bb4:	96ba                	add	a3,a3,a4
    5bb6:	96c6                	add	a3,a3,a7
    5bb8:	02c30633          	mul	a2,t1,a2
    5bbc:	00e6f363          	bgeu	a3,a4,5bc2 <__divdi3+0x362>
    5bc0:	967a                	add	a2,a2,t5
    5bc2:	0106d313          	srli	t1,a3,0x10
    5bc6:	961a                	add	a2,a2,t1
    5bc8:	02c5e263          	bltu	a1,a2,5bec <__divdi3+0x38c>
    5bcc:	00c58563          	beq	a1,a2,5bd6 <__divdi3+0x376>
    5bd0:	8576                	mv	a0,t4
    5bd2:	4581                	li	a1,0
    5bd4:	b395                	j	5938 <__divdi3+0xd8>
    5bd6:	6741                	lui	a4,0x10
    5bd8:	177d                	addi	a4,a4,-1
    5bda:	8ef9                	and	a3,a3,a4
    5bdc:	06c2                	slli	a3,a3,0x10
    5bde:	00ee7e33          	and	t3,t3,a4
    5be2:	00f517b3          	sll	a5,a0,a5
    5be6:	96f2                	add	a3,a3,t3
    5be8:	fed7f4e3          	bgeu	a5,a3,5bd0 <__divdi3+0x370>
    5bec:	fffe8513          	addi	a0,t4,-1
    5bf0:	4581                	li	a1,0
    5bf2:	b399                	j	5938 <__divdi3+0xd8>
    5bf4:	0106d893          	srli	a7,a3,0x10
    5bf8:	4741                	li	a4,16
    5bfa:	b505                	j	5a1a <__divdi3+0x1ba>
    5bfc:	01065693          	srli	a3,a2,0x10
    5c00:	47c1                	li	a5,16
    5c02:	b979                	j	58a0 <__divdi3+0x40>
    5c04:	01035693          	srli	a3,t1,0x10
    5c08:	47c1                	li	a5,16
    5c0a:	bb85                	j	597a <__divdi3+0x11a>
    5c0c:	4581                	li	a1,0
    5c0e:	4505                	li	a0,1
    5c10:	b325                	j	5938 <__divdi3+0xd8>
    5c12:	88b6                	mv	a7,a3
    5c14:	4701                	li	a4,0
    5c16:	b511                	j	5a1a <__divdi3+0x1ba>
    5c18:	833a                	mv	t1,a4
    5c1a:	b7bd                	j	5b88 <__divdi3+0x328>
    5c1c:	863e                	mv	a2,a5
    5c1e:	bdf1                	j	5afa <__divdi3+0x29a>
    5c20:	8ec6                	mv	t4,a7
    5c22:	bf25                	j	5b5a <__divdi3+0x2fa>
    5c24:	8e32                	mv	t3,a2
    5c26:	b555                	j	5aca <__divdi3+0x26a>
    5c28:	17f9                	addi	a5,a5,-2
    5c2a:	989a                	add	a7,a7,t1
    5c2c:	b9c9                	j	58fe <__divdi3+0x9e>
    5c2e:	17f9                	addi	a5,a5,-2
    5c30:	971a                	add	a4,a4,t1
    5c32:	bb61                	j	59ca <__divdi3+0x16a>

00005c34 <__moddi3>:
    5c34:	4801                	li	a6,0
    5c36:	0c05ca63          	bltz	a1,5d0a <__moddi3+0xd6>
    5c3a:	0006d963          	bgez	a3,5c4c <__moddi3+0x18>
    5c3e:	40c00633          	neg	a2,a2
    5c42:	00c037b3          	snez	a5,a2
    5c46:	40d006b3          	neg	a3,a3
    5c4a:	8e9d                	sub	a3,a3,a5
    5c4c:	87b6                	mv	a5,a3
    5c4e:	88b2                	mv	a7,a2
    5c50:	8e2a                	mv	t3,a0
    5c52:	8eae                	mv	t4,a1
    5c54:	16069363          	bnez	a3,5dba <__moddi3+0x186>
    5c58:	0cc5f263          	bgeu	a1,a2,5d1c <__moddi3+0xe8>
    5c5c:	6741                	lui	a4,0x10
    5c5e:	1ce67663          	bgeu	a2,a4,5e2a <__moddi3+0x1f6>
    5c62:	0ff00713          	li	a4,255
    5c66:	86b2                	mv	a3,a2
    5c68:	00c77563          	bgeu	a4,a2,5c72 <__moddi3+0x3e>
    5c6c:	00865693          	srli	a3,a2,0x8
    5c70:	47a1                	li	a5,8
    5c72:	00000717          	auipc	a4,0x0
    5c76:	6fa70713          	addi	a4,a4,1786 # 636c <__clz_tab>
    5c7a:	9736                	add	a4,a4,a3
    5c7c:	2318                	lbu	a4,0(a4)
    5c7e:	02000313          	li	t1,32
    5c82:	97ba                	add	a5,a5,a4
    5c84:	40f30333          	sub	t1,t1,a5
    5c88:	00030c63          	beqz	t1,5ca0 <__moddi3+0x6c>
    5c8c:	006595b3          	sll	a1,a1,t1
    5c90:	00f557b3          	srl	a5,a0,a5
    5c94:	006618b3          	sll	a7,a2,t1
    5c98:	00b7eeb3          	or	t4,a5,a1
    5c9c:	00651e33          	sll	t3,a0,t1
    5ca0:	0108d613          	srli	a2,a7,0x10
    5ca4:	02ced7b3          	divu	a5,t4,a2
    5ca8:	01089513          	slli	a0,a7,0x10
    5cac:	8141                	srli	a0,a0,0x10
    5cae:	010e5693          	srli	a3,t3,0x10
    5cb2:	02cefeb3          	remu	t4,t4,a2
    5cb6:	02f507b3          	mul	a5,a0,a5
    5cba:	0ec2                	slli	t4,t4,0x10
    5cbc:	00dee733          	or	a4,t4,a3
    5cc0:	00f77863          	bgeu	a4,a5,5cd0 <__moddi3+0x9c>
    5cc4:	9746                	add	a4,a4,a7
    5cc6:	01176563          	bltu	a4,a7,5cd0 <__moddi3+0x9c>
    5cca:	00f77363          	bgeu	a4,a5,5cd0 <__moddi3+0x9c>
    5cce:	9746                	add	a4,a4,a7
    5cd0:	8f1d                	sub	a4,a4,a5
    5cd2:	02c756b3          	divu	a3,a4,a2
    5cd6:	010e1793          	slli	a5,t3,0x10
    5cda:	83c1                	srli	a5,a5,0x10
    5cdc:	02c77733          	remu	a4,a4,a2
    5ce0:	02d50533          	mul	a0,a0,a3
    5ce4:	0742                	slli	a4,a4,0x10
    5ce6:	8fd9                	or	a5,a5,a4
    5ce8:	0aa7ed63          	bltu	a5,a0,5da2 <__moddi3+0x16e>
    5cec:	40a78533          	sub	a0,a5,a0
    5cf0:	00655533          	srl	a0,a0,t1
    5cf4:	4581                	li	a1,0
    5cf6:	00080963          	beqz	a6,5d08 <__moddi3+0xd4>
    5cfa:	40a00533          	neg	a0,a0
    5cfe:	00a037b3          	snez	a5,a0
    5d02:	40b005b3          	neg	a1,a1
    5d06:	8d9d                	sub	a1,a1,a5
    5d08:	8082                	ret
    5d0a:	40a00533          	neg	a0,a0
    5d0e:	00a037b3          	snez	a5,a0
    5d12:	40b005b3          	neg	a1,a1
    5d16:	8d9d                	sub	a1,a1,a5
    5d18:	587d                	li	a6,-1
    5d1a:	b705                	j	5c3a <__moddi3+0x6>
    5d1c:	e601                	bnez	a2,5d24 <__moddi3+0xf0>
    5d1e:	4885                	li	a7,1
    5d20:	02d8d8b3          	divu	a7,a7,a3
    5d24:	6741                	lui	a4,0x10
    5d26:	0ee8e963          	bltu	a7,a4,5e18 <__moddi3+0x1e4>
    5d2a:	010007b7          	lui	a5,0x1000
    5d2e:	2af8e263          	bltu	a7,a5,5fd2 <__moddi3+0x39e>
    5d32:	0188d693          	srli	a3,a7,0x18
    5d36:	47e1                	li	a5,24
    5d38:	00000717          	auipc	a4,0x0
    5d3c:	63470713          	addi	a4,a4,1588 # 636c <__clz_tab>
    5d40:	9736                	add	a4,a4,a3
    5d42:	2318                	lbu	a4,0(a4)
    5d44:	02000313          	li	t1,32
    5d48:	97ba                	add	a5,a5,a4
    5d4a:	40f30333          	sub	t1,t1,a5
    5d4e:	1e031863          	bnez	t1,5f3e <__moddi3+0x30a>
    5d52:	01089e93          	slli	t4,a7,0x10
    5d56:	411585b3          	sub	a1,a1,a7
    5d5a:	0108d613          	srli	a2,a7,0x10
    5d5e:	010ede93          	srli	t4,t4,0x10
    5d62:	010e5713          	srli	a4,t3,0x10
    5d66:	02c5d6b3          	divu	a3,a1,a2
    5d6a:	02c5f5b3          	remu	a1,a1,a2
    5d6e:	03d686b3          	mul	a3,a3,t4
    5d72:	05c2                	slli	a1,a1,0x10
    5d74:	8f4d                	or	a4,a4,a1
    5d76:	00d77763          	bgeu	a4,a3,5d84 <__moddi3+0x150>
    5d7a:	9746                	add	a4,a4,a7
    5d7c:	01176463          	bltu	a4,a7,5d84 <__moddi3+0x150>
    5d80:	26d76863          	bltu	a4,a3,5ff0 <__moddi3+0x3bc>
    5d84:	8f15                	sub	a4,a4,a3
    5d86:	02c75533          	divu	a0,a4,a2
    5d8a:	0e42                	slli	t3,t3,0x10
    5d8c:	010e5e13          	srli	t3,t3,0x10
    5d90:	02c77733          	remu	a4,a4,a2
    5d94:	03d50533          	mul	a0,a0,t4
    5d98:	0742                	slli	a4,a4,0x10
    5d9a:	01c767b3          	or	a5,a4,t3
    5d9e:	00a7f863          	bgeu	a5,a0,5dae <__moddi3+0x17a>
    5da2:	97c6                	add	a5,a5,a7
    5da4:	0117e563          	bltu	a5,a7,5dae <__moddi3+0x17a>
    5da8:	00a7f363          	bgeu	a5,a0,5dae <__moddi3+0x17a>
    5dac:	97c6                	add	a5,a5,a7
    5dae:	40a78533          	sub	a0,a5,a0
    5db2:	00655533          	srl	a0,a0,t1
    5db6:	4581                	li	a1,0
    5db8:	bf3d                	j	5cf6 <__moddi3+0xc2>
    5dba:	872a                	mv	a4,a0
    5dbc:	f2d5ede3          	bltu	a1,a3,5cf6 <__moddi3+0xc2>
    5dc0:	67c1                	lui	a5,0x10
    5dc2:	04f6e363          	bltu	a3,a5,5e08 <__moddi3+0x1d4>
    5dc6:	010007b7          	lui	a5,0x1000
    5dca:	20f6e063          	bltu	a3,a5,5fca <__moddi3+0x396>
    5dce:	0186d313          	srli	t1,a3,0x18
    5dd2:	48e1                	li	a7,24
    5dd4:	00000797          	auipc	a5,0x0
    5dd8:	59878793          	addi	a5,a5,1432 # 636c <__clz_tab>
    5ddc:	979a                	add	a5,a5,t1
    5dde:	0007ce83          	lbu	t4,0(a5)
    5de2:	02000e13          	li	t3,32
    5de6:	9ec6                	add	t4,t4,a7
    5de8:	41de0e33          	sub	t3,t3,t4
    5dec:	040e1763          	bnez	t3,5e3a <__moddi3+0x206>
    5df0:	00b6e463          	bltu	a3,a1,5df8 <__moddi3+0x1c4>
    5df4:	00c56863          	bltu	a0,a2,5e04 <__moddi3+0x1d0>
    5df8:	40c50733          	sub	a4,a0,a2
    5dfc:	8d95                	sub	a1,a1,a3
    5dfe:	00e53533          	sltu	a0,a0,a4
    5e02:	8d89                	sub	a1,a1,a0
    5e04:	853a                	mv	a0,a4
    5e06:	bdc5                	j	5cf6 <__moddi3+0xc2>
    5e08:	0ff00793          	li	a5,255
    5e0c:	1cd7fb63          	bgeu	a5,a3,5fe2 <__moddi3+0x3ae>
    5e10:	0086d313          	srli	t1,a3,0x8
    5e14:	48a1                	li	a7,8
    5e16:	bf7d                	j	5dd4 <__moddi3+0x1a0>
    5e18:	0ff00713          	li	a4,255
    5e1c:	86c6                	mv	a3,a7
    5e1e:	f1177de3          	bgeu	a4,a7,5d38 <__moddi3+0x104>
    5e22:	0088d693          	srli	a3,a7,0x8
    5e26:	47a1                	li	a5,8
    5e28:	bf01                	j	5d38 <__moddi3+0x104>
    5e2a:	010007b7          	lui	a5,0x1000
    5e2e:	1af66663          	bltu	a2,a5,5fda <__moddi3+0x3a6>
    5e32:	01865693          	srli	a3,a2,0x18
    5e36:	47e1                	li	a5,24
    5e38:	bd2d                	j	5c72 <__moddi3+0x3e>
    5e3a:	01d657b3          	srl	a5,a2,t4
    5e3e:	01c696b3          	sll	a3,a3,t3
    5e42:	8edd                	or	a3,a3,a5
    5e44:	01d5d333          	srl	t1,a1,t4
    5e48:	0106d713          	srli	a4,a3,0x10
    5e4c:	02e35f33          	divu	t5,t1,a4
    5e50:	01069f93          	slli	t6,a3,0x10
    5e54:	01d557b3          	srl	a5,a0,t4
    5e58:	010fdf93          	srli	t6,t6,0x10
    5e5c:	01c595b3          	sll	a1,a1,t3
    5e60:	8ddd                	or	a1,a1,a5
    5e62:	0105d893          	srli	a7,a1,0x10
    5e66:	01c61633          	sll	a2,a2,t3
    5e6a:	01c51533          	sll	a0,a0,t3
    5e6e:	02e37333          	remu	t1,t1,a4
    5e72:	03ef87b3          	mul	a5,t6,t5
    5e76:	0342                	slli	t1,t1,0x10
    5e78:	011368b3          	or	a7,t1,a7
    5e7c:	00f8fb63          	bgeu	a7,a5,5e92 <__moddi3+0x25e>
    5e80:	98b6                	add	a7,a7,a3
    5e82:	ffff0313          	addi	t1,t5,-1
    5e86:	16d8e363          	bltu	a7,a3,5fec <__moddi3+0x3b8>
    5e8a:	16f8f163          	bgeu	a7,a5,5fec <__moddi3+0x3b8>
    5e8e:	1f79                	addi	t5,t5,-2
    5e90:	98b6                	add	a7,a7,a3
    5e92:	40f888b3          	sub	a7,a7,a5
    5e96:	02e8d7b3          	divu	a5,a7,a4
    5e9a:	05c2                	slli	a1,a1,0x10
    5e9c:	81c1                	srli	a1,a1,0x10
    5e9e:	02e8f8b3          	remu	a7,a7,a4
    5ea2:	02ff8fb3          	mul	t6,t6,a5
    5ea6:	01089713          	slli	a4,a7,0x10
    5eaa:	8f4d                	or	a4,a4,a1
    5eac:	01f77b63          	bgeu	a4,t6,5ec2 <__moddi3+0x28e>
    5eb0:	9736                	add	a4,a4,a3
    5eb2:	fff78593          	addi	a1,a5,-1 # ffffff <_data_lma+0xff9b93>
    5eb6:	12d76963          	bltu	a4,a3,5fe8 <__moddi3+0x3b4>
    5eba:	13f77763          	bgeu	a4,t6,5fe8 <__moddi3+0x3b4>
    5ebe:	17f9                	addi	a5,a5,-2
    5ec0:	9736                	add	a4,a4,a3
    5ec2:	0f42                	slli	t5,t5,0x10
    5ec4:	63c1                	lui	t2,0x10
    5ec6:	00ff6f33          	or	t5,t5,a5
    5eca:	fff38893          	addi	a7,t2,-1 # ffff <_data_lma+0x9b93>
    5ece:	011f7333          	and	t1,t5,a7
    5ed2:	01065593          	srli	a1,a2,0x10
    5ed6:	010f5f13          	srli	t5,t5,0x10
    5eda:	011678b3          	and	a7,a2,a7
    5ede:	031302b3          	mul	t0,t1,a7
    5ee2:	41f70733          	sub	a4,a4,t6
    5ee6:	031f08b3          	mul	a7,t5,a7
    5eea:	0102d793          	srli	a5,t0,0x10
    5eee:	02b30333          	mul	t1,t1,a1
    5ef2:	9346                	add	t1,t1,a7
    5ef4:	979a                	add	a5,a5,t1
    5ef6:	02bf0f33          	mul	t5,t5,a1
    5efa:	0117f363          	bgeu	a5,a7,5f00 <__moddi3+0x2cc>
    5efe:	9f1e                	add	t5,t5,t2
    5f00:	68c1                	lui	a7,0x10
    5f02:	18fd                	addi	a7,a7,-1
    5f04:	0107d593          	srli	a1,a5,0x10
    5f08:	0117f7b3          	and	a5,a5,a7
    5f0c:	07c2                	slli	a5,a5,0x10
    5f0e:	0112f2b3          	and	t0,t0,a7
    5f12:	95fa                	add	a1,a1,t5
    5f14:	9796                	add	a5,a5,t0
    5f16:	0ab76263          	bltu	a4,a1,5fba <__moddi3+0x386>
    5f1a:	08b70e63          	beq	a4,a1,5fb6 <__moddi3+0x382>
    5f1e:	40f507b3          	sub	a5,a0,a5
    5f22:	00f53533          	sltu	a0,a0,a5
    5f26:	40b705b3          	sub	a1,a4,a1
    5f2a:	8d89                	sub	a1,a1,a0
    5f2c:	01d59eb3          	sll	t4,a1,t4
    5f30:	01c7d533          	srl	a0,a5,t3
    5f34:	00aee533          	or	a0,t4,a0
    5f38:	01c5d5b3          	srl	a1,a1,t3
    5f3c:	bb6d                	j	5cf6 <__moddi3+0xc2>
    5f3e:	006898b3          	sll	a7,a7,t1
    5f42:	00f5d733          	srl	a4,a1,a5
    5f46:	0108d613          	srli	a2,a7,0x10
    5f4a:	02c756b3          	divu	a3,a4,a2
    5f4e:	01089e93          	slli	t4,a7,0x10
    5f52:	00f557b3          	srl	a5,a0,a5
    5f56:	010ede93          	srli	t4,t4,0x10
    5f5a:	006595b3          	sll	a1,a1,t1
    5f5e:	8ddd                	or	a1,a1,a5
    5f60:	0105df13          	srli	t5,a1,0x10
    5f64:	00651e33          	sll	t3,a0,t1
    5f68:	02c77733          	remu	a4,a4,a2
    5f6c:	02de87b3          	mul	a5,t4,a3
    5f70:	01071693          	slli	a3,a4,0x10
    5f74:	01e6e6b3          	or	a3,a3,t5
    5f78:	00f6f863          	bgeu	a3,a5,5f88 <__moddi3+0x354>
    5f7c:	96c6                	add	a3,a3,a7
    5f7e:	0116e563          	bltu	a3,a7,5f88 <__moddi3+0x354>
    5f82:	00f6f363          	bgeu	a3,a5,5f88 <__moddi3+0x354>
    5f86:	96c6                	add	a3,a3,a7
    5f88:	8e9d                	sub	a3,a3,a5
    5f8a:	02c6d733          	divu	a4,a3,a2
    5f8e:	01059793          	slli	a5,a1,0x10
    5f92:	83c1                	srli	a5,a5,0x10
    5f94:	02c6f6b3          	remu	a3,a3,a2
    5f98:	02ee8733          	mul	a4,t4,a4
    5f9c:	01069593          	slli	a1,a3,0x10
    5fa0:	8ddd                	or	a1,a1,a5
    5fa2:	00e5f863          	bgeu	a1,a4,5fb2 <__moddi3+0x37e>
    5fa6:	95c6                	add	a1,a1,a7
    5fa8:	0115e563          	bltu	a1,a7,5fb2 <__moddi3+0x37e>
    5fac:	00e5f363          	bgeu	a1,a4,5fb2 <__moddi3+0x37e>
    5fb0:	95c6                	add	a1,a1,a7
    5fb2:	8d99                	sub	a1,a1,a4
    5fb4:	b37d                	j	5d62 <__moddi3+0x12e>
    5fb6:	f6f574e3          	bgeu	a0,a5,5f1e <__moddi3+0x2ea>
    5fba:	40c78633          	sub	a2,a5,a2
    5fbe:	00c7b7b3          	sltu	a5,a5,a2
    5fc2:	97b6                	add	a5,a5,a3
    5fc4:	8d9d                	sub	a1,a1,a5
    5fc6:	87b2                	mv	a5,a2
    5fc8:	bf99                	j	5f1e <__moddi3+0x2ea>
    5fca:	0106d313          	srli	t1,a3,0x10
    5fce:	48c1                	li	a7,16
    5fd0:	b511                	j	5dd4 <__moddi3+0x1a0>
    5fd2:	0108d693          	srli	a3,a7,0x10
    5fd6:	47c1                	li	a5,16
    5fd8:	b385                	j	5d38 <__moddi3+0x104>
    5fda:	01065693          	srli	a3,a2,0x10
    5fde:	47c1                	li	a5,16
    5fe0:	b949                	j	5c72 <__moddi3+0x3e>
    5fe2:	8336                	mv	t1,a3
    5fe4:	4881                	li	a7,0
    5fe6:	b3fd                	j	5dd4 <__moddi3+0x1a0>
    5fe8:	87ae                	mv	a5,a1
    5fea:	bde1                	j	5ec2 <__moddi3+0x28e>
    5fec:	8f1a                	mv	t5,t1
    5fee:	b555                	j	5e92 <__moddi3+0x25e>
    5ff0:	9746                	add	a4,a4,a7
    5ff2:	bb49                	j	5d84 <__moddi3+0x150>

00005ff4 <_close>:
    5ff4:	05800793          	li	a5,88
    5ff8:	1fffc717          	auipc	a4,0x1fffc
    5ffc:	b8f72823          	sw	a5,-1136(a4) # 20001b88 <errno>
    6000:	557d                	li	a0,-1
    6002:	8082                	ret

00006004 <_fstat>:
    6004:	05800793          	li	a5,88
    6008:	1fffc717          	auipc	a4,0x1fffc
    600c:	b8f72023          	sw	a5,-1152(a4) # 20001b88 <errno>
    6010:	557d                	li	a0,-1
    6012:	8082                	ret

00006014 <_isatty>:
    6014:	05800793          	li	a5,88
    6018:	1fffc717          	auipc	a4,0x1fffc
    601c:	b6f72823          	sw	a5,-1168(a4) # 20001b88 <errno>
    6020:	4501                	li	a0,0
    6022:	8082                	ret

00006024 <_lseek>:
    6024:	05800793          	li	a5,88
    6028:	1fffc717          	auipc	a4,0x1fffc
    602c:	b6f72023          	sw	a5,-1184(a4) # 20001b88 <errno>
    6030:	557d                	li	a0,-1
    6032:	8082                	ret

00006034 <_read>:
    6034:	05800793          	li	a5,88
    6038:	1fffc717          	auipc	a4,0x1fffc
    603c:	b4f72823          	sw	a5,-1200(a4) # 20001b88 <errno>
    6040:	557d                	li	a0,-1
    6042:	8082                	ret
    6044:	74737953          	0x74737953
    6048:	6d65                	lui	s10,0x19
    604a:	3a6b6c43          	fmadd.d	fs8,fs6,ft6,ft7,unknown
    604e:	6425                	lui	s0,0x9
    6050:	0a0d                	addi	s4,s4,3
    6052:	0000                	unimp
    6054:	70696843          	fmadd.s	fa6,fs2,ft6,fa4,unknown
    6058:	4449                	li	s0,18
    605a:	253a                	lhu	a4,10(a0)
    605c:	3830                	lbu	a2,19(s0)
    605e:	0d78                	addi	a4,sp,668
    6060:	000a                	c.slli	zero,0x2
    6062:	0000                	unimp
    6064:	6854                	flw	fa3,20(s0)
    6066:	7369                	lui	t1,0xffffa
    6068:	6920                	flw	fs0,80(a0)
    606a:	72702073          	csrr	zero,0x727
    606e:	6e69                	lui	t3,0x1a
    6070:	6674                	flw	fa3,76(a2)
    6072:	6520                	flw	fs0,72(a0)
    6074:	6178                	flw	fa4,68(a0)
    6076:	706d                	c.lui	zero,0xffffb
    6078:	656c                	flw	fa1,76(a0)
    607a:	000d                	c.nop	3
    607c:	5245                	li	tp,-15
    607e:	4f52                	lw	t5,20(sp)
    6080:	2152                	lhu	a2,4(a0)
    6082:	000a                	c.slli	zero,0x2
    6084:	4325                	li	t1,9
	...

00006088 <DAYS_IN_MONTH>:
    6088:	001f 0000 001c 0000 001f 0000 001e 0000     ................
    6098:	001f 0000 001e 0000 001f 0000 001f 0000     ................
    60a8:	001e 0000 001f 0000 001e 0000 001f 0000     ................

000060b8 <_DAYS_BEFORE_MONTH>:
    60b8:	0000 0000 001f 0000 003b 0000 005a 0000     ........;...Z...
    60c8:	0078 0000 0097 0000 00b5 0000 00d4 0000     x...............
    60d8:	00f3 0000 0111 0000 0130 0000 014e 0000     ........0...N...
    60e8:	5a54 0000 4d47 0054 3125 5b30 305e 392d     TZ..GMT.%10[^0-9
    60f8:	2b2c 5d2d 6e25 0000 6825 2575 3a6e 6825     ,+-]%n..%hu%n:%h
    6108:	2575 3a6e 6825 2575 006e 0000 254d 7568     u%n:%hu%n...M%hu
    6118:	6e25 252e 7568 6e25 252e 7568 6e25 0000     %n.%hu%n.%hu%n..
    6128:	252f 7568 6e25 253a 7568 6e25 253a 7568     /%hu%n:%hu%n:%hu
    6138:	6e25 0000                                   %n..

0000613c <__sf_fake_stderr>:
	...

0000615c <__sf_fake_stdin>:
	...

0000617c <__sf_fake_stdout>:
	...

0000619c <__month_lengths>:
    619c:	001f 0000 001c 0000 001f 0000 001e 0000     ................
    61ac:	001f 0000 001e 0000 001f 0000 001f 0000     ................
    61bc:	001e 0000 001f 0000 001e 0000 001f 0000     ................
    61cc:	001f 0000 001d 0000 001f 0000 001e 0000     ................
    61dc:	001f 0000 001e 0000 001f 0000 001f 0000     ................
    61ec:	001e 0000 001f 0000 001e 0000 001f 0000     ................
    61fc:	2d23 2b30 0020 0000 6c68 004c 6665 4567     #-0+ ...hlL.efgE
    620c:	4746 0000 3130 3332 3534 3736 3938 4241     FG..0123456789AB
    621c:	4443 4645 0000 0000 3130 3332 3534 3736     CDEF....01234567
    622c:	3938 6261 6463 6665 0000 0000 0043 0000     89abcdef....C...
    623c:	4f50 4953 0058 0000 002e 0000 2d41 6146     POSIX.......A-Fa
    624c:	662d 3938 3130 3332 3534 3736 005d 0000     -f8901234567]...
    625c:	2d2b 0000 3030 0000 5878 0000               +-..00..xX..

00006268 <_ctype_>:
    6268:	2000 2020 2020 2020 2020 2828 2828 2028     .         ((((( 
    6278:	2020 2020 2020 2020 2020 2020 2020 2020                     
    6288:	8820 1010 1010 1010 1010 1010 1010 1010      ...............
    6298:	0410 0404 0404 0404 0404 1004 1010 1010     ................
    62a8:	1010 4141 4141 4141 0101 0101 0101 0101     ..AAAAAA........
    62b8:	0101 0101 0101 0101 0101 0101 1010 1010     ................
    62c8:	1010 4242 4242 4242 0202 0202 0202 0202     ..BBBBBB........
    62d8:	0202 0202 0202 0202 0202 0202 1010 1010     ................
    62e8:	0020 0000 0000 0000 0000 0000 0000 0000      ...............
	...

0000636c <__clz_tab>:
    636c:	0100 0202 0303 0303 0404 0404 0404 0404     ................
    637c:	0505 0505 0505 0505 0505 0505 0505 0505     ................
    638c:	0606 0606 0606 0606 0606 0606 0606 0606     ................
    639c:	0606 0606 0606 0606 0606 0606 0606 0606     ................
    63ac:	0707 0707 0707 0707 0707 0707 0707 0707     ................
    63bc:	0707 0707 0707 0707 0707 0707 0707 0707     ................
    63cc:	0707 0707 0707 0707 0707 0707 0707 0707     ................
    63dc:	0707 0707 0707 0707 0707 0707 0707 0707     ................
    63ec:	0808 0808 0808 0808 0808 0808 0808 0808     ................
    63fc:	0808 0808 0808 0808 0808 0808 0808 0808     ................
    640c:	0808 0808 0808 0808 0808 0808 0808 0808     ................
    641c:	0808 0808 0808 0808 0808 0808 0808 0808     ................
    642c:	0808 0808 0808 0808 0808 0808 0808 0808     ................
    643c:	0808 0808 0808 0808 0808 0808 0808 0808     ................
    644c:	0808 0808 0808 0808 0808 0808 0808 0808     ................
    645c:	0808 0808 0808 0808 0808 0808 0808 0808     ................
